	.cpu cortex-m4
	.arch armv7e-m
	.fpu fpv4-sp-d16
	.eabi_attribute 27, 1
	.eabi_attribute 28, 1
	.eabi_attribute 20, 1
	.eabi_attribute 21, 1
	.eabi_attribute 23, 3
	.eabi_attribute 24, 1
	.eabi_attribute 25, 1
	.eabi_attribute 26, 1
	.eabi_attribute 30, 2
	.eabi_attribute 34, 1
	.eabi_attribute 18, 4
	.file	"main.c"
	.text
.Ltext0:
	.cfi_sections	.debug_frame
	.file 1 "main.c"
	.align	1
	.p2align 2,,3
	.global	autic_double_buffer
	.syntax unified
	.thumb
	.thumb_func
	.type	autic_double_buffer, %function
autic_double_buffer:
.LFB111:
	.loc 1 180 1 view -0
	.cfi_startproc
	@ Volatile: function does not return.
	@ args = 0, pretend = 0, frame = 32
	@ frame_needed = 0, uses_anonymous_args = 0
	push	{r7, fp, lr}
	.cfi_def_cfa_offset 12
	.cfi_offset 7, -12
	.cfi_offset 11, -8
	.cfi_offset 14, -4
	ldr	r6, .L26
	ldr	r5, .L26+4
	ldr	r9, .L26+12
	.loc 1 182 22 is_stmt 0 view .LVU1
	ldr	r8, .L26+16
.LBB6:
.LBB7:
	.loc 1 217 3 view .LVU2
	ldr	r7, .L26+8
.LBE7:
.LBE6:
	.loc 1 180 1 view .LVU3
	sub	sp, sp, #36
	.cfi_def_cfa_offset 48
.LBB11:
.LBB8:
	.loc 1 215 13 view .LVU4
	movw	r10, #21930
.L2:
.LBE8:
.LBE11:
	.loc 1 181 3 is_stmt 1 view .LVU5
	.loc 1 182 5 view .LVU6
	.loc 1 182 22 is_stmt 0 view .LVU7
	ldr	r4, [r8, #40]
	.loc 1 184 25 view .LVU8
	ldrb	r3, [r6]	@ zero_extendqisi2
	.loc 1 182 8 view .LVU9
	ands	r4, r4, #524288
	beq	.L3
.L23:
	.loc 1 184 7 is_stmt 1 view .LVU10
	.loc 1 184 10 is_stmt 0 view .LVU11
	and	r4, r3, #255
	cmp	r3, #0
	bne	.L2
	.loc 1 188 9 is_stmt 1 view .LVU12
.LVL0:
.LBB12:
.LBI12:
	.loc 1 210 6 view .LVU13
.LBB13:
	.loc 1 211 3 view .LVU14
	.loc 1 212 3 view .LVU15
	.loc 1 215 3 view .LVU16
	.loc 1 216 3 view .LVU17
	.loc 1 217 3 is_stmt 0 view .LVU18
	mov	r1, sp
	mov	r0, r7
	.loc 1 215 13 view .LVU19
	strh	r10, [sp]	@ movhi
	.loc 1 217 3 is_stmt 1 view .LVU20
	ldr	fp, .L26+20
	bl	txDataNRF24L01
.LVL1:
	.loc 1 219 3 view .LVU21
	.loc 1 219 17 view .LVU22
	.loc 1 212 15 is_stmt 0 view .LVU23
	mov	r3, r4
	b	.L6
.LVL2:
.L5:
	.loc 1 219 28 is_stmt 1 view .LVU24
	.loc 1 219 17 view .LVU25
	cmp	r5, fp
	beq	.L21
.LVL3:
.L6:
	.loc 1 221 5 view .LVU26
	.loc 1 221 41 is_stmt 0 view .LVU27
	ldrh	r4, [fp]
.LVL4:
	.loc 1 222 42 view .LVU28
	ldrh	r1, [fp]
	.loc 1 221 17 view .LVU29
	add	r0, r3, #32
	.loc 1 222 17 view .LVU30
	add	r2, r3, #33
	.loc 1 221 17 view .LVU31
	add	r0, sp, r0
	.loc 1 222 17 view .LVU32
	add	r2, sp, r2
	.loc 1 222 13 view .LVU33
	adds	r3, r3, #2
.LVL5:
	.loc 1 222 19 view .LVU34
	ubfx	r1, r1, #8, #8
	.loc 1 225 8 view .LVU35
	cmp	r3, #32
	.loc 1 221 19 view .LVU36
	strb	r4, [r0, #-32]
	.loc 1 222 5 is_stmt 1 view .LVU37
.LVL6:
	.loc 1 219 17 is_stmt 0 view .LVU38
	add	fp, fp, #2
	.loc 1 222 19 view .LVU39
	strb	r1, [r2, #-32]
	.loc 1 225 5 is_stmt 1 view .LVU40
	.loc 1 225 8 is_stmt 0 view .LVU41
	bne	.L5
	.loc 1 226 7 is_stmt 1 view .LVU42
	mov	r1, sp
	mov	r0, r7
	bl	txDataNRF24L01
.LVL7:
	.loc 1 227 7 view .LVU43
	.loc 1 219 17 is_stmt 0 view .LVU44
	cmp	r5, fp
	.loc 1 227 9 view .LVU45
	mov	r3, #0
.LVL8:
	.loc 1 219 28 is_stmt 1 view .LVU46
	.loc 1 219 17 view .LVU47
	bne	.L6
.L21:
	.loc 1 232 3 view .LVU48
	.loc 1 232 6 is_stmt 0 view .LVU49
	cbnz	r3, .L22
.LVL9:
.L7:
	.loc 1 232 6 view .LVU50
.LBE13:
.LBE12:
	.loc 1 190 9 is_stmt 1 view .LVU51
	.loc 1 190 23 is_stmt 0 view .LVU52
	movs	r3, #1
	strb	r3, [r6]
	.loc 1 181 3 is_stmt 1 view .LVU53
	.loc 1 182 5 view .LVU54
	.loc 1 182 22 is_stmt 0 view .LVU55
	ldr	r4, [r8, #40]
	.loc 1 184 25 view .LVU56
	ldrb	r3, [r6]	@ zero_extendqisi2
	.loc 1 182 8 view .LVU57
	ands	r4, r4, #524288
	bne	.L23
.L3:
	.loc 1 194 7 is_stmt 1 view .LVU58
	.loc 1 194 10 is_stmt 0 view .LVU59
	cmp	r3, #1
	bne	.L2
	.loc 1 198 9 is_stmt 1 view .LVU60
.LVL10:
.LBB15:
.LBI6:
	.loc 1 210 6 view .LVU61
.LBB9:
	.loc 1 211 3 view .LVU62
	.loc 1 212 3 view .LVU63
	.loc 1 215 3 view .LVU64
	.loc 1 216 3 view .LVU65
	.loc 1 217 3 is_stmt 0 view .LVU66
	mov	r1, sp
	mov	r0, r7
	.loc 1 215 13 view .LVU67
	strh	r10, [sp]	@ movhi
	.loc 1 217 3 is_stmt 1 view .LVU68
	ldr	fp, .L26+24
	bl	txDataNRF24L01
.LVL11:
	.loc 1 219 3 view .LVU69
	.loc 1 219 17 view .LVU70
	.loc 1 212 15 is_stmt 0 view .LVU71
	mov	r3, r4
	b	.L9
.LVL12:
.L8:
	.loc 1 219 28 is_stmt 1 view .LVU72
	.loc 1 219 17 view .LVU73
	cmp	fp, r9
	beq	.L24
.LVL13:
.L9:
	.loc 1 221 5 view .LVU74
	.loc 1 221 41 is_stmt 0 view .LVU75
	ldrh	r4, [fp]
.LVL14:
	.loc 1 222 42 view .LVU76
	ldrh	r1, [fp]
	.loc 1 221 17 view .LVU77
	add	r0, r3, #32
	.loc 1 222 17 view .LVU78
	add	r2, r3, #33
	.loc 1 221 17 view .LVU79
	add	r0, sp, r0
	.loc 1 222 17 view .LVU80
	add	r2, sp, r2
	.loc 1 222 13 view .LVU81
	adds	r3, r3, #2
.LVL15:
	.loc 1 222 19 view .LVU82
	ubfx	r1, r1, #8, #8
	.loc 1 225 8 view .LVU83
	cmp	r3, #32
	.loc 1 221 19 view .LVU84
	strb	r4, [r0, #-32]
	.loc 1 222 5 is_stmt 1 view .LVU85
.LVL16:
	.loc 1 219 17 is_stmt 0 view .LVU86
	add	fp, fp, #2
	.loc 1 222 19 view .LVU87
	strb	r1, [r2, #-32]
	.loc 1 225 5 is_stmt 1 view .LVU88
	.loc 1 225 8 is_stmt 0 view .LVU89
	bne	.L8
	.loc 1 226 7 is_stmt 1 view .LVU90
	mov	r1, sp
	mov	r0, r7
	bl	txDataNRF24L01
.LVL17:
	.loc 1 227 7 view .LVU91
	.loc 1 219 17 is_stmt 0 view .LVU92
	cmp	fp, r9
	.loc 1 227 9 view .LVU93
	mov	r3, #0
.LVL18:
	.loc 1 219 28 is_stmt 1 view .LVU94
	.loc 1 219 17 view .LVU95
	bne	.L9
.L24:
	.loc 1 232 3 view .LVU96
	.loc 1 232 6 is_stmt 0 view .LVU97
	cbnz	r3, .L25
.LVL19:
.L10:
	.loc 1 232 6 view .LVU98
.LBE9:
.LBE15:
	.loc 1 201 9 is_stmt 1 view .LVU99
	.loc 1 201 23 is_stmt 0 view .LVU100
	movs	r3, #0
	strb	r3, [r6]
	b	.L2
.LVL20:
.L22:
.LBB16:
.LBB14:
	.loc 1 233 5 is_stmt 1 view .LVU101
	mov	r1, sp
	mov	r0, r7
	bl	txDataNRF24L01
.LVL21:
	.loc 1 233 5 is_stmt 0 view .LVU102
	b	.L7
.LVL22:
.L25:
	.loc 1 233 5 view .LVU103
.LBE14:
.LBE16:
.LBB17:
.LBB10:
	.loc 1 233 5 is_stmt 1 view .LVU104
	mov	r1, sp
	mov	r0, r7
	bl	txDataNRF24L01
.LVL23:
	.loc 1 233 5 is_stmt 0 view .LVU105
	b	.L10
.L27:
	.align	2
.L26:
	.word	.LANCHOR0
	.word	frame_buffer0+38400
	.word	c_nrf_slave_addr
	.word	frame_buffer1+38400
	.word	1073898496
	.word	frame_buffer0
	.word	frame_buffer1
.LBE10:
.LBE17:
	.cfi_endproc
.LFE111:
	.size	autic_double_buffer, .-autic_double_buffer
	.align	1
	.p2align 2,,3
	.global	sendFrameNRF
	.syntax unified
	.thumb
	.thumb_func
	.type	sendFrameNRF, %function
sendFrameNRF:
.LVL24:
.LFB112:
	.loc 1 210 69 is_stmt 1 view -0
	.cfi_startproc
	@ args = 0, pretend = 0, frame = 32
	@ frame_needed = 0, uses_anonymous_args = 0
	.loc 1 211 3 view .LVU107
	.loc 1 212 3 view .LVU108
	.loc 1 215 3 view .LVU109
	.loc 1 216 3 view .LVU110
	.loc 1 210 69 is_stmt 0 view .LVU111
	push	{r4, r5, r6, r7, lr}
	.cfi_def_cfa_offset 20
	.cfi_offset 4, -20
	.cfi_offset 5, -16
	.cfi_offset 6, -12
	.cfi_offset 7, -8
	.cfi_offset 14, -4
	sub	sp, sp, #36
	.cfi_def_cfa_offset 56
	.loc 1 210 69 view .LVU112
	mov	r7, r1
	mov	r4, r0
	.loc 1 215 13 view .LVU113
	movw	r3, #21930
	.loc 1 217 3 view .LVU114
	ldr	r0, .L44
.LVL25:
	.loc 1 215 13 view .LVU115
	strh	r3, [sp]	@ movhi
	.loc 1 217 3 is_stmt 1 view .LVU116
	mov	r1, sp
.LVL26:
	.loc 1 217 3 is_stmt 0 view .LVU117
	bl	txDataNRF24L01
.LVL27:
	.loc 1 219 3 is_stmt 1 view .LVU118
	.loc 1 219 17 view .LVU119
	cbz	r7, .L28
	.loc 1 212 15 is_stmt 0 view .LVU120
	movs	r3, #0
	.loc 1 226 7 view .LVU121
	ldr	r6, .L44
	.loc 1 219 10 view .LVU122
	mov	r5, r3
	b	.L31
.LVL28:
.L30:
	.loc 1 219 28 is_stmt 1 discriminator 2 view .LVU123
	.loc 1 219 17 discriminator 2 view .LVU124
	cmp	r7, r5
	beq	.L42
.LVL29:
.L31:
	.loc 1 221 5 view .LVU125
	.loc 1 221 41 is_stmt 0 view .LVU126
	ldrh	r1, [r4]
.LVL30:
	.loc 1 222 42 view .LVU127
	ldrh	r0, [r4]
	.loc 1 221 17 view .LVU128
	add	ip, r3, #32
	.loc 1 222 17 view .LVU129
	add	r2, r3, #33
	.loc 1 221 17 view .LVU130
	add	ip, sp, ip
	.loc 1 222 17 view .LVU131
	add	r2, sp, r2
	.loc 1 222 13 view .LVU132
	adds	r3, r3, #2
	.loc 1 222 19 view .LVU133
	ubfx	r0, r0, #8, #8
	.loc 1 225 8 view .LVU134
	cmp	r3, #32
	.loc 1 221 19 view .LVU135
	strb	r1, [ip, #-32]
	.loc 1 222 5 is_stmt 1 view .LVU136
.LVL31:
	.loc 1 219 28 is_stmt 0 view .LVU137
	add	r5, r5, #1
.LVL32:
	.loc 1 222 19 view .LVU138
	strb	r0, [r2, #-32]
	.loc 1 225 5 is_stmt 1 view .LVU139
	.loc 1 219 17 is_stmt 0 view .LVU140
	add	r4, r4, #2
	.loc 1 225 8 view .LVU141
	bne	.L30
	.loc 1 226 7 is_stmt 1 view .LVU142
	mov	r1, sp
	mov	r0, r6
	bl	txDataNRF24L01
.LVL33:
	.loc 1 227 7 view .LVU143
	.loc 1 219 17 is_stmt 0 view .LVU144
	cmp	r7, r5
	.loc 1 227 9 view .LVU145
	mov	r3, #0
.LVL34:
	.loc 1 219 28 is_stmt 1 view .LVU146
	.loc 1 219 17 view .LVU147
	bne	.L31
.L42:
	.loc 1 232 3 view .LVU148
	.loc 1 232 6 is_stmt 0 view .LVU149
	cbnz	r3, .L43
.LVL35:
.L28:
	.loc 1 235 1 view .LVU150
	add	sp, sp, #36
	.cfi_remember_state
	.cfi_def_cfa_offset 20
	@ sp needed
	pop	{r4, r5, r6, r7, pc}
.LVL36:
.L43:
	.cfi_restore_state
	.loc 1 233 5 is_stmt 1 view .LVU151
	mov	r1, sp
	ldr	r0, .L44
	bl	txDataNRF24L01
.LVL37:
	.loc 1 235 1 is_stmt 0 view .LVU152
	add	sp, sp, #36
	.cfi_def_cfa_offset 20
	@ sp needed
	pop	{r4, r5, r6, r7, pc}
.LVL38:
.L45:
	.loc 1 235 1 view .LVU153
	.align	2
.L44:
	.word	c_nrf_slave_addr
	.cfi_endproc
.LFE112:
	.size	sendFrameNRF, .-sendFrameNRF
	.align	1
	.p2align 2,,3
	.global	receiveFrameNRF
	.syntax unified
	.thumb
	.thumb_func
	.type	receiveFrameNRF, %function
receiveFrameNRF:
.LVL39:
.LFB114:
	.loc 1 249 1 is_stmt 1 view -0
	.cfi_startproc
	@ args = 0, pretend = 0, frame = 32
	@ frame_needed = 0, uses_anonymous_args = 0
	.loc 1 250 5 view .LVU155
	.loc 1 251 5 view .LVU156
	.loc 1 252 5 view .LVU157
	.loc 1 249 1 is_stmt 0 view .LVU158
	push	{r4, r5, r6, lr}
	.cfi_def_cfa_offset 16
	.cfi_offset 4, -16
	.cfi_offset 5, -12
	.cfi_offset 6, -8
	.cfi_offset 14, -4
	mov	r5, r0
	sub	sp, sp, #32
	.cfi_def_cfa_offset 48
	.loc 1 252 14 view .LVU159
	lsls	r6, r1, #1
.LVL40:
	.loc 1 251 14 view .LVU160
	movs	r4, #0
.LVL41:
.L48:
	.loc 1 254 5 is_stmt 1 view .LVU161
	.loc 1 256 9 view .LVU162
	.loc 1 256 13 is_stmt 0 view .LVU163
	bl	dataReadyNRF24L01
.LVL42:
	.loc 1 256 12 view .LVU164
	cmp	r0, #1
	bne	.L48
	.loc 1 257 13 is_stmt 1 view .LVU165
	mov	r0, sp
	bl	rxDataNRF24L01
.LVL43:
	.loc 1 260 13 view .LVU166
	.loc 1 260 16 is_stmt 0 view .LVU167
	ldrb	r3, [sp]	@ zero_extendqisi2
	cmp	r3, #170
	beq	.L49
.L52:
.LVL44:
.LBB18:
	.loc 1 266 36 is_stmt 1 view .LVU168
	cmp	r6, r4
	bls	.L57
	mov	r3, sp
	add	r0, r4, #32
	b	.L56
.LVL45:
.L64:
.LBB19:
	.loc 1 275 31 is_stmt 0 view .LVU169
	adds	r4, r4, #1
.LVL46:
	.loc 1 270 49 view .LVU170
	ldrb	r2, [r3]	@ zero_extendqisi2
	strh	r2, [r5, r1]	@ movhi
	.loc 1 275 17 is_stmt 1 view .LVU171
.LVL47:
	.loc 1 275 17 is_stmt 0 view .LVU172
.LBE19:
	.loc 1 266 70 is_stmt 1 view .LVU173
	.loc 1 266 36 view .LVU174
	cmp	r4, r0
	add	r3, r3, #1
	beq	.L55
.LVL48:
.L65:
	.loc 1 266 36 is_stmt 0 discriminator 3 view .LVU175
	cmp	r6, r4
	beq	.L57
.LVL49:
.L56:
.LBB20:
	.loc 1 267 17 is_stmt 1 view .LVU176
	.loc 1 268 17 view .LVU177
	.loc 1 270 21 view .LVU178
	.loc 1 273 21 view .LVU179
	.loc 1 273 33 is_stmt 0 view .LVU180
	bic	r2, r4, #1
	.loc 1 268 20 view .LVU181
	tst	r4, #1
	.loc 1 270 33 view .LVU182
	mov	r1, r2
	.loc 1 268 20 view .LVU183
	beq	.L64
	.loc 1 273 45 view .LVU184
	ldrb	ip, [r3]	@ zero_extendqisi2
	.loc 1 273 41 view .LVU185
	ldrh	r1, [r5, r2]
	.loc 1 275 31 view .LVU186
	adds	r4, r4, #1
.LVL50:
	.loc 1 273 41 view .LVU187
	orr	r1, r1, ip, lsl #8
.LBE20:
	.loc 1 266 36 view .LVU188
	cmp	r4, r0
.LBB21:
	.loc 1 273 41 view .LVU189
	strh	r1, [r5, r2]	@ movhi
	.loc 1 275 17 is_stmt 1 view .LVU190
.LVL51:
	.loc 1 275 17 is_stmt 0 view .LVU191
.LBE21:
	.loc 1 266 70 is_stmt 1 view .LVU192
	.loc 1 266 36 view .LVU193
	add	r3, r3, #1
	bne	.L65
.LVL52:
.L55:
	.loc 1 266 36 is_stmt 0 view .LVU194
.LBE18:
	.loc 1 279 13 is_stmt 1 view .LVU195
	.loc 1 279 16 is_stmt 0 view .LVU196
	cmp	r6, r4
	bhi	.L48
.LVL53:
.L57:
	.loc 1 280 17 is_stmt 1 view .LVU197
	mov	r1, #19200
	mov	r0, r5
	bl	send_frame_buffer
.LVL54:
	.loc 1 281 17 view .LVU198
	.loc 1 285 1 is_stmt 0 view .LVU199
	add	sp, sp, #32
	.cfi_remember_state
	.cfi_def_cfa_offset 16
	@ sp needed
	pop	{r4, r5, r6, pc}
.LVL55:
.L49:
	.cfi_restore_state
	.loc 1 260 44 discriminator 1 view .LVU200
	ldrb	r3, [sp, #1]	@ zero_extendqisi2
	cmp	r3, #85
	bne	.L52
	.loc 1 261 32 view .LVU201
	movs	r4, #0
	b	.L48
	.cfi_endproc
.LFE114:
	.size	receiveFrameNRF, .-receiveFrameNRF
	.align	1
	.p2align 2,,3
	.global	kontroler_double_buffer
	.syntax unified
	.thumb
	.thumb_func
	.type	kontroler_double_buffer, %function
kontroler_double_buffer:
.LFB113:
	.loc 1 240 1 is_stmt 1 view -0
	.cfi_startproc
	@ Volatile: function does not return.
	@ args = 0, pretend = 0, frame = 0
	@ frame_needed = 0, uses_anonymous_args = 0
	push	{r3, lr}
	.cfi_def_cfa_offset 8
	.cfi_offset 3, -8
	.cfi_offset 14, -4
	.loc 1 242 5 is_stmt 0 view .LVU203
	ldr	r4, .L69
.L67:
	.loc 1 241 3 is_stmt 1 discriminator 1 view .LVU204
	.loc 1 242 5 discriminator 1 view .LVU205
	mov	r1, #19200
	mov	r0, r4
	bl	receiveFrameNRF
.LVL56:
	.loc 1 241 9 discriminator 1 view .LVU206
	b	.L67
.L70:
	.align	2
.L69:
	.word	frame_buffer
	.cfi_endproc
.LFE113:
	.size	kontroler_double_buffer, .-kontroler_double_buffer
	.align	1
	.p2align 2,,3
	.global	DMA2_Stream1_IRQHandler
	.syntax unified
	.thumb
	.thumb_func
	.type	DMA2_Stream1_IRQHandler, %function
DMA2_Stream1_IRQHandler:
.LFB115:
	.loc 1 346 1 view -0
	.cfi_startproc
	@ args = 0, pretend = 0, frame = 0
	@ frame_needed = 0, uses_anonymous_args = 0
	@ link register save eliminated.
	.loc 1 348 5 view .LVU208
	.loc 1 348 12 is_stmt 0 view .LVU209
	ldr	r3, .L82
	ldr	r2, [r3]
	.loc 1 348 7 view .LVU210
	lsls	r1, r2, #21
	.loc 1 349 9 is_stmt 1 view .LVU211
	.loc 1 354 5 view .LVU212
	.loc 1 349 21 is_stmt 0 view .LVU213
	itt	mi
	movmi	r2, #1024
	strmi	r2, [r3, #8]
	.loc 1 354 12 view .LVU214
	ldr	r3, .L82
	ldr	r2, [r3]
	.loc 1 354 7 view .LVU215
	lsls	r2, r2, #20
	bpl	.L71
	.loc 1 355 9 is_stmt 1 view .LVU216
	.loc 1 355 21 is_stmt 0 view .LVU217
	mov	r2, #2048
	str	r2, [r3, #8]
	.loc 1 357 9 is_stmt 1 view .LVU218
	.loc 1 357 26 is_stmt 0 view .LVU219
	ldr	r0, [r3, #40]
	.loc 1 359 27 view .LVU220
	ldr	r1, .L82+4
	ldr	r2, .L82+8
	ldr	r3, .L82+12
	tst	r0, #524288
	it	eq
	moveq	r3, r1
	.loc 1 365 22 view .LVU221
	movs	r1, #1
	str	r3, [r2, #4]
	.loc 1 365 9 is_stmt 1 view .LVU222
	.loc 1 365 22 is_stmt 0 view .LVU223
	strb	r1, [r2, #8]
.L71:
	.loc 1 367 1 view .LVU224
	bx	lr
.L83:
	.align	2
.L82:
	.word	1073898496
	.word	frame_buffer1
	.word	.LANCHOR0
	.word	frame_buffer0
	.cfi_endproc
.LFE115:
	.size	DMA2_Stream1_IRQHandler, .-DMA2_Stream1_IRQHandler
	.align	1
	.p2align 2,,3
	.global	autic_dma_interrupt
	.syntax unified
	.thumb
	.thumb_func
	.type	autic_dma_interrupt, %function
autic_dma_interrupt:
.LFB116:
	.loc 1 370 28 is_stmt 1 view -0
	.cfi_startproc
	@ Volatile: function does not return.
	@ args = 0, pretend = 0, frame = 32
	@ frame_needed = 0, uses_anonymous_args = 0
	push	{r7, lr}
	.cfi_def_cfa_offset 8
	.cfi_offset 7, -8
	.cfi_offset 14, -4
	ldr	r9, .L99+4
.LBB24:
.LBB25:
	.loc 1 217 3 is_stmt 0 view .LVU226
	ldr	r5, .L99
.LBE25:
.LBE24:
	.loc 1 370 28 view .LVU227
	sub	sp, sp, #32
	.cfi_def_cfa_offset 40
.LBB29:
.LBB26:
	.loc 1 215 13 view .LVU228
	movw	r7, #21930
.LBE26:
.LBE29:
	.loc 1 375 26 view .LVU229
	movs	r6, #0
.L85:
	.loc 1 371 5 is_stmt 1 view .LVU230
	.loc 1 372 9 view .LVU231
	.loc 1 372 12 is_stmt 0 view .LVU232
	ldrb	r3, [r9, #8]	@ zero_extendqisi2
	.loc 1 372 11 view .LVU233
	cmp	r3, #0
	beq	.L85
	.loc 1 374 13 is_stmt 1 view .LVU234
	ldr	r4, [r9, #4]
.LVL57:
.LBB30:
.LBI24:
	.loc 1 210 6 view .LVU235
.LBB27:
	.loc 1 211 3 view .LVU236
	.loc 1 212 3 view .LVU237
	.loc 1 215 3 view .LVU238
	.loc 1 216 3 view .LVU239
	.loc 1 215 13 is_stmt 0 view .LVU240
	strh	r7, [sp]	@ movhi
	.loc 1 217 3 is_stmt 1 view .LVU241
	mov	r1, sp
	mov	r0, r5
	bl	txDataNRF24L01
.LVL58:
	.loc 1 219 3 view .LVU242
	.loc 1 219 17 view .LVU243
	add	r8, r4, #38400
	.loc 1 212 15 is_stmt 0 view .LVU244
	movs	r3, #0
	b	.L87
.LVL59:
.L86:
	.loc 1 219 28 is_stmt 1 view .LVU245
	.loc 1 219 17 view .LVU246
	cmp	r4, r8
	beq	.L97
.LVL60:
.L87:
	.loc 1 221 5 view .LVU247
	.loc 1 221 17 is_stmt 0 view .LVU248
	add	r2, r3, #32
	add	r2, sp, r2
	.loc 1 221 41 view .LVU249
	ldrh	r1, [r4]
	.loc 1 221 19 view .LVU250
	strb	r1, [r2, #-32]
	.loc 1 222 42 view .LVU251
	ldrh	r1, [r4]
.LVL61:
	.loc 1 222 5 is_stmt 1 view .LVU252
	.loc 1 222 17 is_stmt 0 view .LVU253
	add	r2, r3, #33
.LVL62:
	.loc 1 222 17 view .LVU254
	add	r2, sp, r2
	.loc 1 222 13 view .LVU255
	adds	r3, r3, #2
.LVL63:
	.loc 1 222 19 view .LVU256
	ubfx	r1, r1, #8, #8
	.loc 1 225 8 view .LVU257
	cmp	r3, #32
	.loc 1 219 17 view .LVU258
	add	r4, r4, #2
	.loc 1 222 19 view .LVU259
	strb	r1, [r2, #-32]
	.loc 1 225 5 is_stmt 1 view .LVU260
	.loc 1 225 8 is_stmt 0 view .LVU261
	bne	.L86
	.loc 1 226 7 is_stmt 1 view .LVU262
	mov	r1, sp
	mov	r0, r5
	bl	txDataNRF24L01
.LVL64:
	.loc 1 227 7 view .LVU263
	.loc 1 219 17 is_stmt 0 view .LVU264
	cmp	r4, r8
	.loc 1 227 9 view .LVU265
	mov	r3, #0
.LVL65:
	.loc 1 219 28 is_stmt 1 view .LVU266
	.loc 1 219 17 view .LVU267
	bne	.L87
.L97:
	.loc 1 232 3 view .LVU268
	.loc 1 232 6 is_stmt 0 view .LVU269
	cbnz	r3, .L98
.LVL66:
.L88:
	.loc 1 232 6 view .LVU270
.LBE27:
.LBE30:
	.loc 1 375 13 is_stmt 1 view .LVU271
	.loc 1 375 26 is_stmt 0 view .LVU272
	strb	r6, [r9, #8]
	b	.L85
.LVL67:
.L98:
.LBB31:
.LBB28:
	.loc 1 233 5 is_stmt 1 view .LVU273
	mov	r1, sp
	mov	r0, r5
	bl	txDataNRF24L01
.LVL68:
	.loc 1 233 5 is_stmt 0 view .LVU274
	b	.L88
.L100:
	.align	2
.L99:
	.word	c_nrf_slave_addr
	.word	.LANCHOR0
.LBE28:
.LBE31:
	.cfi_endproc
.LFE116:
	.size	autic_dma_interrupt, .-autic_dma_interrupt
	.section	.rodata.str1.4,"aMS",%progbits,1
	.align	2
.LC0:
	.ascii	"izvrsavamo inicijalizaciju za Nrf modul\012\012\012"
	.ascii	"\000"
	.align	2
.LC1:
	.ascii	"\012\012wwwwwwwwwwwwwwwwwwwwwwwwwwwwwwwwwwwwwwwwwww"
	.ascii	"wwwwwwwwwwwwwwwwwwwww\012\000"
	.align	2
.LC2:
	.ascii	"w                   nRF24L01 Tx[1]-Rx[0] => [%d]   "
	.ascii	"            w\012\000"
	.align	2
.LC3:
	.ascii	"wwwwwwwwwwwwwwwwwwwwwwwwwwwwwwwwwwwwwwwwwwwwwwwwwww"
	.ascii	"wwwwwwwwwwwww\012\000"
	.align	2
.LC4:
	.ascii	"WWWWWWWWWWWWWWWWWWWWWWWWWWWWWWWWWWWWWWWWWWWWWWWWWWW"
	.ascii	"WWW\012\000"
	.align	2
.LC5:
	.ascii	"WWWWWWWWWWW  Circular buffer od OV7679   WWWWWWWWWW"
	.ascii	"WWW\012\000"
	.align	2
.LC6:
	.ascii	"WWWWWWWWWWWWWWWWWWWWWWWWWWWWWWWWWWWWWWWWWWWWWWwWWWW"
	.ascii	"WWW\012\012\012\000"
	.align	2
.LC7:
	.ascii	"==================================================="
	.ascii	"=============\012\000"
	.align	2
.LC8:
	.ascii	"DCMI inicijalizacija je zavrsena, vrsimo provjeru: "
	.ascii	"\012\012\000"
	.align	2
.LC9:
	.ascii	"###################################################"
	.ascii	"##############\012\000"
	.align	2
.LC10:
	.ascii	"Da li su upisane vrijednosti u nRF modul ???\012\000"
	.align	2
.LC11:
	.ascii	"NRF24L01_RF_SETUP = 0x%xh\012\000"
	.align	2
.LC12:
	.ascii	"NRF24L01_EN_AA = 0x%xh\012\000"
	.section	.text.startup,"ax",%progbits
	.align	1
	.p2align 2,,3
	.global	main
	.syntax unified
	.thumb
	.thumb_func
	.type	main, %function
main:
.LFB110:
	.loc 1 43 1 is_stmt 1 view -0
	.cfi_startproc
	@ Volatile: function does not return.
	@ args = 0, pretend = 0, frame = 8
	@ frame_needed = 0, uses_anonymous_args = 0
	.loc 1 44 3 view .LVU276
	.loc 1 43 1 is_stmt 0 view .LVU277
	push	{lr}
	.cfi_def_cfa_offset 4
	.cfi_offset 14, -4
	sub	sp, sp, #12
	.cfi_def_cfa_offset 16
	.loc 1 44 11 view .LVU278
	movs	r3, #0
	.loc 1 47 5 view .LVU279
	movs	r0, #45
	.loc 1 44 11 view .LVU280
	strb	r3, [sp, #7]
	.loc 1 47 5 is_stmt 1 view .LVU281
	bl	initUSART2
.LVL69:
	.loc 1 48 5 view .LVU282
	bl	initSYSTIMER_TIM7
.LVL70:
	.loc 1 49 5 view .LVU283
	bl	initSYSTIMER
.LVL71:
	.loc 1 52 3 view .LVU284
	ldr	r0, .L108
	bl	printUSART2
.LVL72:
	.loc 1 54 3 view .LVU285
	bl	initGPIOC6_GND
.LVL73:
	.loc 1 55 3 view .LVU286
	movs	r0, #10
	bl	delay_ms
.LVL74:
	.loc 1 56 3 view .LVU287
	add	r0, sp, #7
	bl	chkConnection_GPIOC6_GND
.LVL75:
	.loc 1 58 3 view .LVU288
	ldrb	r0, [sp, #7]	@ zero_extendqisi2
	bl	initnRF24L01
.LVL76:
	.loc 1 59 3 view .LVU289
	mov	r0, #1000
	bl	delay_ms
.LVL77:
	.loc 1 62 3 view .LVU290
	ldr	r0, .L108+4
	bl	printUSART2
.LVL78:
	.loc 1 63 3 view .LVU291
	ldrb	r1, [sp, #7]	@ zero_extendqisi2
	ldr	r0, .L108+8
	bl	printUSART2
.LVL79:
	.loc 1 64 3 view .LVU292
	ldr	r0, .L108+12
	bl	printUSART2
.LVL80:
	.loc 1 69 3 view .LVU293
	.loc 1 69 6 is_stmt 0 view .LVU294
	ldrb	r3, [sp, #7]	@ zero_extendqisi2
	cmp	r3, #1
	beq	.L106
	.loc 1 122 5 is_stmt 1 view .LVU295
	bl	initLIS320DL
.LVL81:
	.loc 1 123 5 view .LVU296
	movs	r0, #10
	bl	delay_ms
.LVL82:
.L103:
	.loc 1 126 3 view .LVU297
	movs	r1, #0
	movs	r0, #1
	bl	conRegNRF24L01
.LVL83:
	.loc 1 127 3 view .LVU298
	movs	r0, #200
	bl	delay_ms
.LVL84:
	.loc 1 128 3 view .LVU299
	ldr	r0, .L108+16
	bl	printUSART2
.LVL85:
	.loc 1 129 3 view .LVU300
	ldr	r0, .L108+20
	bl	printUSART2
.LVL86:
	.loc 1 130 3 view .LVU301
	.loc 1 130 46 is_stmt 0 view .LVU302
	movs	r0, #6
	bl	getRegNRF24L01
.LVL87:
	mov	r1, r0
	.loc 1 130 3 view .LVU303
	ldr	r0, .L108+24
	bl	printUSART2
.LVL88:
	.loc 1 131 3 is_stmt 1 view .LVU304
	.loc 1 131 43 is_stmt 0 view .LVU305
	movs	r0, #1
	bl	getRegNRF24L01
.LVL89:
	mov	r1, r0
	.loc 1 131 3 view .LVU306
	ldr	r0, .L108+28
	bl	printUSART2
.LVL90:
	.loc 1 132 3 is_stmt 1 view .LVU307
	ldr	r0, .L108+16
	bl	printUSART2
.LVL91:
	.loc 1 136 3 view .LVU308
	.loc 1 136 6 is_stmt 0 view .LVU309
	ldrb	r3, [sp, #7]	@ zero_extendqisi2
	cmp	r3, #1
	beq	.L107
	.loc 1 141 5 is_stmt 1 view .LVU310
	bl	kontroler_double_buffer
.LVL92:
.L106:
	.loc 1 72 3 view .LVU311
	ldr	r0, .L108+32
	bl	printUSART2
.LVL93:
	.loc 1 73 3 view .LVU312
	ldr	r0, .L108+36
	bl	printUSART2
.LVL94:
	.loc 1 74 3 view .LVU313
	ldr	r0, .L108+40
	bl	printUSART2
.LVL95:
	.loc 1 81 3 view .LVU314
	bl	OV7670_XCLK_TIM1_init
.LVL96:
	.loc 1 82 3 view .LVU315
	movs	r0, #100
	bl	delay_ms
.LVL97:
	.loc 1 88 3 view .LVU316
	bl	getOV7670_ID
.LVL98:
	.loc 1 89 3 view .LVU317
	movs	r0, #50
	bl	delay_ms
.LVL99:
	.loc 1 96 3 view .LVU318
	bl	OV7670_SetupQQVGA_Custom_sa_neta
.LVL100:
	.loc 1 97 3 view .LVU319
	mov	r0, #1000
	bl	delay_ms
.LVL101:
	.loc 1 102 3 view .LVU320
	bl	OV7670_VerifyRegisters_Custom
.LVL102:
	.loc 1 103 3 view .LVU321
	ldr	r0, .L108+44
	bl	printUSART2
.LVL103:
	.loc 1 106 3 view .LVU322
	bl	DCMI_Init_OV7670_continuous_mode
.LVL104:
	.loc 1 108 3 view .LVU323
	ldr	r0, .L108+48
	bl	printUSART2
.LVL105:
	.loc 1 109 3 view .LVU324
	bl	DCMI_CheckConfig
.LVL106:
	.loc 1 112 3 view .LVU325
	ldr	r1, .L108+52
	ldr	r0, .L108+56
	mov	r2, #19200
	bl	initDMA2_for_OV7670_continuous_mode_double_buffer
.LVL107:
	.loc 1 113 3 view .LVU326
	movs	r0, #100
	bl	delay_ms
.LVL108:
	.loc 1 115 3 view .LVU327
	bl	checkDMA2_Stream1_status
.LVL109:
	.loc 1 119 3 view .LVU328
	bl	DCMI_start_continuous_mode
.LVL110:
	b	.L103
.L107:
	.loc 1 138 5 view .LVU329
	bl	autic_dma_interrupt
.LVL111:
.L109:
	.align	2
.L108:
	.word	.LC0
	.word	.LC1
	.word	.LC2
	.word	.LC3
	.word	.LC9
	.word	.LC10
	.word	.LC11
	.word	.LC12
	.word	.LC4
	.word	.LC5
	.word	.LC6
	.word	.LC7
	.word	.LC8
	.word	frame_buffer1
	.word	frame_buffer0
	.cfi_endproc
.LFE110:
	.size	main, .-main
	.global	citamo_buffer
	.global	frame_ready
	.global	buffer_ready
	.global	frame_to_send
	.bss
	.align	2
	.set	.LANCHOR0,. + 0
	.type	citamo_buffer, %object
	.size	citamo_buffer, 1
citamo_buffer:
	.space	1
	.space	3
	.type	frame_to_send, %object
	.size	frame_to_send, 4
frame_to_send:
	.space	4
	.type	buffer_ready, %object
	.size	buffer_ready, 1
buffer_ready:
	.space	1
	.type	frame_ready, %object
	.size	frame_ready, 1
frame_ready:
	.space	1
	.text
.Letext0:
	.file 2 "/usr/lib/gcc/arm-none-eabi/12.2.1/include/stdint.h"
	.file 3 "/home/eldar/workspace/msut/STM32F407/Libraries/CMSIS/ST/STM32F4xx/Include/stm32f4xx.h"
	.file 4 "DCMI/dcmi.h"
	.file 5 "nRF24L01/nRF24L01.h"
	.file 6 "check/check.h"
	.file 7 "lis302dl/lis302dl.h"
	.file 8 "./dma/dma.h"
	.file 9 "ov7670/ov7670.h"
	.file 10 "gpio/gpioc.h"
	.file 11 "delay/delay.h"
	.file 12 "usart/usart.h"