	.cpu cortex-m4
	.arch armv7e-m
	.fpu fpv4-sp-d16
	.eabi_attribute 27, 1
	.eabi_attribute 28, 1
	.eabi_attribute 20, 1
	.eabi_attribute 21, 1
	.eabi_attribute 23, 3
	.eabi_attribute 24, 1
	.eabi_attribute 25, 1
	.eabi_attribute 26, 1
	.eabi_attribute 30, 2
	.eabi_attribute 34, 1
	.eabi_attribute 18, 4
	.file	"dma.c"
	.text
.Ltext0:
	.cfi_sections	.debug_frame
	.file 1 "dma/dma.c"
	.align	1
	.p2align 2,,3
	.global	initDMA2_for_OV7670_snapshot
	.syntax unified
	.thumb
	.thumb_func
	.type	initDMA2_for_OV7670_snapshot, %function
initDMA2_for_OV7670_snapshot:
.LVL0:
.LFB110:
	.loc 1 7 1 view -0
	.cfi_startproc
	@ args = 0, pretend = 0, frame = 0
	@ frame_needed = 0, uses_anonymous_args = 0
	@ link register save eliminated.
	.loc 1 8 3 view .LVU1
	.loc 1 7 1 is_stmt 0 view .LVU2
	push	{r4, r5}
	.cfi_def_cfa_offset 8
	.cfi_offset 4, -8
	.cfi_offset 5, -4
	.loc 1 8 6 view .LVU3
	ldr	r4, .L6
	.loc 1 10 20 view .LVU4
	ldr	r3, .L6+4
	.loc 1 8 6 view .LVU5
	ldr	r2, [r4, #48]
	.loc 1 8 16 view .LVU6
	orr	r2, r2, #4194304
	str	r2, [r4, #48]
	.loc 1 10 3 is_stmt 1 view .LVU7
	.loc 1 10 20 is_stmt 0 view .LVU8
	movs	r2, #0
	str	r2, [r3, #40]
	.loc 1 12 3 is_stmt 1 view .LVU9
.L2:
	.loc 1 12 10 discriminator 1 view .LVU10
	.loc 1 12 22 is_stmt 0 discriminator 1 view .LVU11
	ldr	r2, [r3, #40]
	.loc 1 12 10 discriminator 1 view .LVU12
	lsls	r2, r2, #31
	bmi	.L2
	.loc 1 18 3 is_stmt 1 view .LVU13
	.loc 1 18 15 is_stmt 0 view .LVU14
	mov	r2, #3904
	str	r2, [r3, #8]
	.loc 1 24 3 is_stmt 1 view .LVU15
	.loc 1 24 15 is_stmt 0 view .LVU16
	ldr	r2, [r3, #40]
	.loc 1 50 21 view .LVU17
	ldr	r4, .L6+8
	.loc 1 24 20 view .LVU18
	orr	r2, r2, #33554432
	str	r2, [r3, #40]
	.loc 1 28 3 is_stmt 1 view .LVU19
	.loc 1 28 15 is_stmt 0 view .LVU20
	ldr	r5, [r3, #40]
	.loc 1 28 20 view .LVU21
	bic	r5, r5, #262144
	str	r5, [r3, #40]
	.loc 1 29 3 is_stmt 1 view .LVU22
	.loc 1 46 29 is_stmt 0 view .LVU23
	lsrs	r2, r1, #1
	.loc 1 29 15 view .LVU24
	ldr	r1, [r3, #40]
.LVL1:
	.loc 1 29 20 view .LVU25
	orr	r1, r1, #196608
	str	r1, [r3, #40]
	.loc 1 31 3 is_stmt 1 view .LVU26
	.loc 1 31 15 is_stmt 0 view .LVU27
	ldr	r1, [r3, #40]
	.loc 1 31 20 view .LVU28
	orr	r1, r1, #8192
	str	r1, [r3, #40]
	.loc 1 32 3 is_stmt 1 view .LVU29
	.loc 1 32 15 is_stmt 0 view .LVU30
	ldr	r1, [r3, #40]
	.loc 1 32 20 view .LVU31
	orr	r1, r1, #4096
	str	r1, [r3, #40]
	.loc 1 33 3 is_stmt 1 view .LVU32
	.loc 1 33 15 is_stmt 0 view .LVU33
	ldr	r1, [r3, #40]
	.loc 1 33 20 view .LVU34
	orr	r1, r1, #1024
	str	r1, [r3, #40]
	.loc 1 36 3 is_stmt 1 view .LVU35
	.loc 1 36 15 is_stmt 0 view .LVU36
	ldr	r1, [r3, #40]
	.loc 1 36 20 view .LVU37
	bic	r1, r1, #512
	str	r1, [r3, #40]
	.loc 1 37 3 is_stmt 1 view .LVU38
	.loc 1 37 15 is_stmt 0 view .LVU39
	ldr	r1, [r3, #40]
	.loc 1 37 20 view .LVU40
	bic	r1, r1, #256
	str	r1, [r3, #40]
	.loc 1 38 3 is_stmt 1 view .LVU41
	.loc 1 38 15 is_stmt 0 view .LVU42
	ldr	r1, [r3, #40]
	.loc 1 38 20 view .LVU43
	bic	r1, r1, #192
	str	r1, [r3, #40]
	.loc 1 39 3 is_stmt 1 view .LVU44
	.loc 1 39 15 is_stmt 0 view .LVU45
	ldr	r1, [r3, #40]
	.loc 1 39 20 view .LVU46
	bic	r1, r1, #32
	str	r1, [r3, #40]
	.loc 1 40 3 is_stmt 1 view .LVU47
	.loc 1 40 15 is_stmt 0 view .LVU48
	ldr	r1, [r3, #40]
	.loc 1 40 20 view .LVU49
	orr	r1, r1, #16
	str	r1, [r3, #40]
	.loc 1 41 3 is_stmt 1 view .LVU50
	.loc 1 41 15 is_stmt 0 view .LVU51
	ldr	r1, [r3, #40]
	.loc 1 41 20 view .LVU52
	orr	r1, r1, #8
	str	r1, [r3, #40]
	.loc 1 42 3 is_stmt 1 view .LVU53
	.loc 1 42 15 is_stmt 0 view .LVU54
	ldr	r1, [r3, #40]
	.loc 1 42 20 view .LVU55
	orr	r1, r1, #4
	str	r1, [r3, #40]
	.loc 1 43 3 is_stmt 1 view .LVU56
	.loc 1 43 15 is_stmt 0 view .LVU57
	ldr	r1, [r3, #40]
	.loc 1 43 20 view .LVU58
	orr	r1, r1, #2
	str	r1, [r3, #40]
	.loc 1 46 3 is_stmt 1 view .LVU59
	.loc 1 46 22 is_stmt 0 view .LVU60
	str	r2, [r3, #44]
	.loc 1 50 3 is_stmt 1 view .LVU61
	.loc 1 50 21 is_stmt 0 view .LVU62
	str	r4, [r3, #48]
	.loc 1 51 3 is_stmt 1 view .LVU63
	.loc 1 51 22 is_stmt 0 view .LVU64
	str	r0, [r3, #52]
	.loc 1 56 3 is_stmt 1 view .LVU65
	.loc 1 56 15 is_stmt 0 view .LVU66
	ldr	r2, [r3, #60]
	.loc 1 56 21 view .LVU67
	bic	r2, r2, #4
	str	r2, [r3, #60]
	.loc 1 59 3 is_stmt 1 view .LVU68
	.loc 1 59 15 is_stmt 0 view .LVU69
	ldr	r2, [r3, #40]
	.loc 1 59 20 view .LVU70
	orr	r2, r2, #1
	.loc 1 73 1 view .LVU71
	pop	{r4, r5}
	.cfi_restore 5
	.cfi_restore 4
	.cfi_def_cfa_offset 0
	.loc 1 59 20 view .LVU72
	str	r2, [r3, #40]
	.loc 1 73 1 view .LVU73
	bx	lr
.L7:
	.align	2
.L6:
	.word	1073887232
	.word	1073898496
	.word	1342505000
	.cfi_endproc
.LFE110:
	.size	initDMA2_for_OV7670_snapshot, .-initDMA2_for_OV7670_snapshot
	.align	1
	.p2align 2,,3
	.global	initDMA2_for_OV7670_continuous_mode
	.syntax unified
	.thumb
	.thumb_func
	.type	initDMA2_for_OV7670_continuous_mode, %function
initDMA2_for_OV7670_continuous_mode:
.LVL2:
.LFB111:
	.loc 1 79 1 is_stmt 1 view -0
	.cfi_startproc
	@ args = 0, pretend = 0, frame = 0
	@ frame_needed = 0, uses_anonymous_args = 0
	@ link register save eliminated.
	.loc 1 80 3 view .LVU75
	.loc 1 79 1 is_stmt 0 view .LVU76
	push	{r4}
	.cfi_def_cfa_offset 4
	.cfi_offset 4, -4
	.loc 1 80 6 view .LVU77
	ldr	r4, .L12
	.loc 1 82 20 view .LVU78
	ldr	r3, .L12+4
	.loc 1 80 6 view .LVU79
	ldr	r2, [r4, #48]
	.loc 1 80 16 view .LVU80
	orr	r2, r2, #4194304
	str	r2, [r4, #48]
	.loc 1 82 3 is_stmt 1 view .LVU81
	.loc 1 82 20 is_stmt 0 view .LVU82
	movs	r2, #0
	str	r2, [r3, #40]
	.loc 1 84 3 is_stmt 1 view .LVU83
.L9:
	.loc 1 84 10 discriminator 1 view .LVU84
	.loc 1 84 22 is_stmt 0 discriminator 1 view .LVU85
	ldr	r2, [r3, #40]
	.loc 1 84 10 discriminator 1 view .LVU86
	ands	r2, r2, #1
	bne	.L9
	.loc 1 90 3 is_stmt 1 view .LVU87
	.loc 1 90 15 is_stmt 0 view .LVU88
	mov	r4, #3904
	str	r4, [r3, #8]
	.loc 1 96 3 is_stmt 1 view .LVU89
	.loc 1 96 15 is_stmt 0 view .LVU90
	ldr	r4, [r3, #40]
	.loc 1 96 20 view .LVU91
	orr	r4, r4, #33554432
	str	r4, [r3, #40]
	.loc 1 100 3 is_stmt 1 view .LVU92
	.loc 1 100 15 is_stmt 0 view .LVU93
	ldr	r4, [r3, #40]
	.loc 1 100 20 view .LVU94
	bic	r4, r4, #262144
	str	r4, [r3, #40]
	.loc 1 101 3 is_stmt 1 view .LVU95
	.loc 1 101 15 is_stmt 0 view .LVU96
	ldr	r4, [r3, #40]
	.loc 1 101 20 view .LVU97
	orr	r4, r4, #196608
	str	r4, [r3, #40]
	.loc 1 103 3 is_stmt 1 view .LVU98
	.loc 1 103 15 is_stmt 0 view .LVU99
	ldr	r4, [r3, #40]
	.loc 1 103 20 view .LVU100
	orr	r4, r4, #8192
	str	r4, [r3, #40]
	.loc 1 104 3 is_stmt 1 view .LVU101
	.loc 1 104 15 is_stmt 0 view .LVU102
	ldr	r4, [r3, #40]
	.loc 1 104 20 view .LVU103
	orr	r4, r4, #4096
	str	r4, [r3, #40]
	.loc 1 105 3 is_stmt 1 view .LVU104
	.loc 1 105 15 is_stmt 0 view .LVU105
	ldr	r4, [r3, #40]
	.loc 1 105 20 view .LVU106
	orr	r4, r4, #1024
	str	r4, [r3, #40]
	.loc 1 108 3 is_stmt 1 view .LVU107
	.loc 1 108 15 is_stmt 0 view .LVU108
	ldr	r4, [r3, #40]
	.loc 1 108 20 view .LVU109
	bic	r4, r4, #512
	str	r4, [r3, #40]
	.loc 1 110 3 is_stmt 1 view .LVU110
	.loc 1 110 15 is_stmt 0 view .LVU111
	ldr	r4, [r3, #40]
	.loc 1 110 20 view .LVU112
	orr	r4, r4, #256
	str	r4, [r3, #40]
	.loc 1 111 3 is_stmt 1 view .LVU113
	.loc 1 111 15 is_stmt 0 view .LVU114
	ldr	r4, [r3, #40]
	.loc 1 111 20 view .LVU115
	bic	r4, r4, #192
	str	r4, [r3, #40]
	.loc 1 112 3 is_stmt 1 view .LVU116
	.loc 1 112 15 is_stmt 0 view .LVU117
	ldr	r4, [r3, #40]
	.loc 1 112 20 view .LVU118
	bic	r4, r4, #32
	str	r4, [r3, #40]
	.loc 1 113 3 is_stmt 1 view .LVU119
	.loc 1 113 15 is_stmt 0 view .LVU120
	ldr	r4, [r3, #40]
	.loc 1 113 20 view .LVU121
	orr	r4, r4, #16
	str	r4, [r3, #40]
	.loc 1 114 3 is_stmt 1 view .LVU122
	.loc 1 114 15 is_stmt 0 view .LVU123
	ldr	r4, [r3, #40]
	.loc 1 114 20 view .LVU124
	orr	r4, r4, #8
	str	r4, [r3, #40]
	.loc 1 115 3 is_stmt 1 view .LVU125
	.loc 1 115 15 is_stmt 0 view .LVU126
	ldr	r4, [r3, #40]
	.loc 1 115 20 view .LVU127
	orr	r4, r4, #4
	str	r4, [r3, #40]
	.loc 1 116 3 is_stmt 1 view .LVU128
	.loc 1 116 15 is_stmt 0 view .LVU129
	ldr	r4, [r3, #40]
	.loc 1 116 20 view .LVU130
	orr	r4, r4, #2
	str	r4, [r3, #40]
	.loc 1 119 3 is_stmt 1 view .LVU131
	.loc 1 119 29 is_stmt 0 view .LVU132
	lsrs	r1, r1, #1
.LVL3:
	.loc 1 123 21 view .LVU133
	ldr	r4, .L12+8
	.loc 1 119 22 view .LVU134
	str	r1, [r3, #44]
	.loc 1 123 3 is_stmt 1 view .LVU135
	.loc 1 123 21 is_stmt 0 view .LVU136
	str	r4, [r3, #48]
	.loc 1 124 3 is_stmt 1 view .LVU137
	.loc 1 124 22 is_stmt 0 view .LVU138
	str	r0, [r3, #52]
	.loc 1 129 3 is_stmt 1 view .LVU139
	.loc 1 129 15 is_stmt 0 view .LVU140
	ldr	r1, [r3, #60]
.LBB10:
.LBB11:
	.file 2 "/home/eldar/workspace/msut/STM32F407/Libraries/CMSIS/Include/core_cm4.h"
	.loc 2 1075 46 view .LVU141
	ldr	r0, .L12+12
.LVL4:
	.loc 2 1075 46 view .LVU142
	mov	r4, #33554432
.LBE11:
.LBE10:
	.loc 1 129 21 view .LVU143
	bic	r1, r1, #4
	str	r1, [r3, #60]
.LVL5:
	.loc 1 132 3 is_stmt 1 view .LVU144
.LBB13:
.LBI10:
	.loc 2 1072 22 view .LVU145
.LBB12:
	.loc 2 1075 3 view .LVU146
	.loc 2 1075 46 is_stmt 0 view .LVU147
	str	r4, [r0, #4]
.LVL6:
	.loc 2 1075 46 view .LVU148
.LBE12:
.LBE13:
	.loc 1 133 3 is_stmt 1 view .LVU149
.LBB14:
.LBI14:
	.loc 2 1157 22 view .LVU150
.LBB15:
	.loc 2 1159 3 view .LVU151
	.loc 2 1162 5 view .LVU152
	.loc 2 1162 32 is_stmt 0 view .LVU153
	strb	r2, [r0, #825]
.LVL7:
	.loc 2 1162 32 view .LVU154
.LBE15:
.LBE14:
	.loc 1 137 3 is_stmt 1 view .LVU155
	.loc 1 137 15 is_stmt 0 view .LVU156
	ldr	r2, [r3, #40]
	.loc 1 151 1 view .LVU157
	ldr	r4, [sp], #4
	.cfi_restore 4
	.cfi_def_cfa_offset 0
	.loc 1 137 20 view .LVU158
	orr	r2, r2, #1
	str	r2, [r3, #40]
	.loc 1 151 1 view .LVU159
	bx	lr
.L13:
	.align	2
.L12:
	.word	1073887232
	.word	1073898496
	.word	1342505000
	.word	-536813312
	.cfi_endproc
.LFE111:
	.size	initDMA2_for_OV7670_continuous_mode, .-initDMA2_for_OV7670_continuous_mode
	.align	1
	.p2align 2,,3
	.global	initDMA2_for_OV7670_continuous_mode_double_buffer
	.syntax unified
	.thumb
	.thumb_func
	.type	initDMA2_for_OV7670_continuous_mode_double_buffer, %function
initDMA2_for_OV7670_continuous_mode_double_buffer:
.LVL8:
.LFB112:
	.loc 1 155 1 is_stmt 1 view -0
	.cfi_startproc
	@ args = 0, pretend = 0, frame = 0
	@ frame_needed = 0, uses_anonymous_args = 0
	@ link register save eliminated.
	.loc 1 156 3 view .LVU161
	.loc 1 155 1 is_stmt 0 view .LVU162
	push	{r4, r5}
	.cfi_def_cfa_offset 8
	.cfi_offset 4, -8
	.cfi_offset 5, -4
	.loc 1 156 6 view .LVU163
	ldr	r4, .L18
	ldr	r3, [r4, #48]
	.loc 1 156 16 view .LVU164
	orr	r3, r3, #4194304
	str	r3, [r4, #48]
	.loc 1 158 3 is_stmt 1 view .LVU165
	.loc 1 158 20 is_stmt 0 view .LVU166
	ldr	r3, .L18+4
	movs	r4, #0
	str	r4, [r3, #40]
	.loc 1 160 3 is_stmt 1 view .LVU167
.L15:
	.loc 1 160 10 discriminator 1 view .LVU168
	.loc 1 160 22 is_stmt 0 discriminator 1 view .LVU169
	ldr	r4, [r3, #40]
	.loc 1 160 10 discriminator 1 view .LVU170
	ands	r4, r4, #1
	bne	.L15
	.loc 1 166 3 is_stmt 1 view .LVU171
	.loc 1 166 15 is_stmt 0 view .LVU172
	mov	r5, #3904
	str	r5, [r3, #8]
	.loc 1 172 3 is_stmt 1 view .LVU173
	.loc 1 172 15 is_stmt 0 view .LVU174
	ldr	r5, [r3, #40]
	.loc 1 172 20 view .LVU175
	orr	r5, r5, #33554432
	str	r5, [r3, #40]
	.loc 1 177 3 is_stmt 1 view .LVU176
	.loc 1 177 15 is_stmt 0 view .LVU177
	ldr	r5, [r3, #40]
	.loc 1 177 20 view .LVU178
	orr	r5, r5, #262144
	str	r5, [r3, #40]
	.loc 1 178 3 is_stmt 1 view .LVU179
	.loc 1 178 15 is_stmt 0 view .LVU180
	ldr	r5, [r3, #40]
	.loc 1 178 20 view .LVU181
	orr	r5, r5, #196608
	str	r5, [r3, #40]
	.loc 1 180 3 is_stmt 1 view .LVU182
	.loc 1 180 15 is_stmt 0 view .LVU183
	ldr	r5, [r3, #40]
	.loc 1 180 20 view .LVU184
	orr	r5, r5, #8192
	str	r5, [r3, #40]
	.loc 1 181 3 is_stmt 1 view .LVU185
	.loc 1 181 15 is_stmt 0 view .LVU186
	ldr	r5, [r3, #40]
	.loc 1 181 20 view .LVU187
	orr	r5, r5, #4096
	str	r5, [r3, #40]
	.loc 1 182 3 is_stmt 1 view .LVU188
	.loc 1 182 15 is_stmt 0 view .LVU189
	ldr	r5, [r3, #40]
	.loc 1 182 20 view .LVU190
	orr	r5, r5, #1024
	str	r5, [r3, #40]
	.loc 1 185 3 is_stmt 1 view .LVU191
	.loc 1 185 15 is_stmt 0 view .LVU192
	ldr	r5, [r3, #40]
	.loc 1 185 20 view .LVU193
	bic	r5, r5, #512
	str	r5, [r3, #40]
	.loc 1 187 3 is_stmt 1 view .LVU194
	.loc 1 187 15 is_stmt 0 view .LVU195
	ldr	r5, [r3, #40]
	.loc 1 187 20 view .LVU196
	orr	r5, r5, #256
	str	r5, [r3, #40]
	.loc 1 188 3 is_stmt 1 view .LVU197
	.loc 1 188 15 is_stmt 0 view .LVU198
	ldr	r5, [r3, #40]
	.loc 1 188 20 view .LVU199
	bic	r5, r5, #192
	str	r5, [r3, #40]
	.loc 1 189 3 is_stmt 1 view .LVU200
	.loc 1 189 15 is_stmt 0 view .LVU201
	ldr	r5, [r3, #40]
	.loc 1 189 20 view .LVU202
	bic	r5, r5, #32
	str	r5, [r3, #40]
	.loc 1 190 3 is_stmt 1 view .LVU203
	.loc 1 190 15 is_stmt 0 view .LVU204
	ldr	r5, [r3, #40]
	.loc 1 190 20 view .LVU205
	orr	r5, r5, #16
	str	r5, [r3, #40]
	.loc 1 191 3 is_stmt 1 view .LVU206
	.loc 1 191 15 is_stmt 0 view .LVU207
	ldr	r5, [r3, #40]
	.loc 1 191 20 view .LVU208
	orr	r5, r5, #8
	str	r5, [r3, #40]
	.loc 1 192 3 is_stmt 1 view .LVU209
	.loc 1 192 15 is_stmt 0 view .LVU210
	ldr	r5, [r3, #40]
	.loc 1 192 20 view .LVU211
	orr	r5, r5, #4
	str	r5, [r3, #40]
	.loc 1 193 3 is_stmt 1 view .LVU212
	.loc 1 193 15 is_stmt 0 view .LVU213
	ldr	r5, [r3, #40]
	.loc 1 196 29 view .LVU214
	lsrs	r2, r2, #1
.LVL9:
	.loc 1 193 20 view .LVU215
	orr	r5, r5, #2
	str	r5, [r3, #40]
	.loc 1 196 3 is_stmt 1 view .LVU216
	.loc 1 196 22 is_stmt 0 view .LVU217
	str	r2, [r3, #44]
	.loc 1 200 3 is_stmt 1 view .LVU218
	.loc 1 200 21 is_stmt 0 view .LVU219
	ldr	r2, .L18+8
	str	r2, [r3, #48]
	.loc 1 201 3 is_stmt 1 view .LVU220
	.loc 1 201 22 is_stmt 0 view .LVU221
	str	r0, [r3, #52]
	.loc 1 205 3 is_stmt 1 view .LVU222
	.loc 1 205 22 is_stmt 0 view .LVU223
	str	r1, [r3, #56]
	.loc 1 207 3 is_stmt 1 view .LVU224
	.loc 1 207 15 is_stmt 0 view .LVU225
	ldr	r2, [r3, #60]
.LBB16:
.LBB17:
	.loc 2 1075 46 view .LVU226
	ldr	r1, .L18+12
.LVL10:
	.loc 2 1075 46 view .LVU227
.LBE17:
.LBE16:
	.loc 1 207 21 view .LVU228
	bic	r2, r2, #4
.LBB20:
.LBB18:
	.loc 2 1075 46 view .LVU229
	mov	r0, #33554432
.LVL11:
	.loc 2 1075 46 view .LVU230
.LBE18:
.LBE20:
	.loc 1 207 21 view .LVU231
	str	r2, [r3, #60]
.LVL12:
	.loc 1 210 3 is_stmt 1 view .LVU232
.LBB21:
.LBI16:
	.loc 2 1072 22 view .LVU233
.LBB19:
	.loc 2 1075 3 view .LVU234
	.loc 2 1075 46 is_stmt 0 view .LVU235
	str	r0, [r1, #4]
.LVL13:
	.loc 2 1075 46 view .LVU236
.LBE19:
.LBE21:
	.loc 1 211 3 is_stmt 1 view .LVU237
.LBB22:
.LBI22:
	.loc 2 1157 22 view .LVU238
.LBB23:
	.loc 2 1159 3 view .LVU239
	.loc 2 1162 5 view .LVU240
	.loc 2 1162 32 is_stmt 0 view .LVU241
	strb	r4, [r1, #825]
.LVL14:
	.loc 2 1162 32 view .LVU242
.LBE23:
.LBE22:
	.loc 1 215 3 is_stmt 1 view .LVU243
	.loc 1 215 15 is_stmt 0 view .LVU244
	ldr	r2, [r3, #40]
	.loc 1 215 20 view .LVU245
	orr	r2, r2, #1
	.loc 1 229 1 view .LVU246
	pop	{r4, r5}
	.cfi_restore 5
	.cfi_restore 4
	.cfi_def_cfa_offset 0
	.loc 1 215 20 view .LVU247
	str	r2, [r3, #40]
	.loc 1 229 1 view .LVU248
	bx	lr
.L19:
	.align	2
.L18:
	.word	1073887232
	.word	1073898496
	.word	1342505000
	.word	-536813312
	.cfi_endproc
.LFE112:
	.size	initDMA2_for_OV7670_continuous_mode_double_buffer, .-initDMA2_for_OV7670_continuous_mode_double_buffer
.Letext0:
	.file 3 "/usr/lib/gcc/arm-none-eabi/12.2.1/include/stdint.h"
	.file 4 "/home/eldar/workspace/msut/STM32F407/Libraries/CMSIS/ST/STM32F4xx/Include/stm32f4xx.h"