	.cpu cortex-m4
	.arch armv7e-m
	.fpu fpv4-sp-d16
	.eabi_attribute 27, 1
	.eabi_attribute 28, 1
	.eabi_attribute 20, 1
	.eabi_attribute 21, 1
	.eabi_attribute 23, 3
	.eabi_attribute 24, 1
	.eabi_attribute 25, 1
	.eabi_attribute 26, 1
	.eabi_attribute 30, 2
	.eabi_attribute 34, 1
	.eabi_attribute 18, 4
	.file	"nRF24L01.c"
	.text
.Ltext0:
	.cfi_sections	.debug_frame
	.file 1 "nRF24L01/nRF24L01.c"
	.align	1
	.p2align 2,,3
	.global	setRxAddrNRF24L01
	.syntax unified
	.thumb
	.thumb_func
	.type	setRxAddrNRF24L01, %function
setRxAddrNRF24L01:
.LVL0:
.LFB111:
	.loc 1 144 1 view -0
	.cfi_startproc
	@ args = 0, pretend = 0, frame = 8
	@ frame_needed = 0, uses_anonymous_args = 0
	.loc 1 145 3 view .LVU1
	.loc 1 144 1 is_stmt 0 view .LVU2
	push	{r4, r5, lr}
	.cfi_def_cfa_offset 12
	.cfi_offset 4, -12
	.cfi_offset 5, -8
	.cfi_offset 14, -4
	.loc 1 145 3 view .LVU3
	ldr	r4, .L4
	ldr	r3, [r4, #20]
	.loc 1 144 1 view .LVU4
	sub	sp, sp, #12
	.cfi_def_cfa_offset 24
.LBB18:
.LBB19:
	.loc 1 489 12 view .LVU5
	and	r1, r1, #31
.LVL1:
	.loc 1 489 12 view .LVU6
.LBE19:
.LBE18:
	.loc 1 145 3 view .LVU7
	bic	r3, r3, #2048
.LBB23:
.LBB20:
	.loc 1 490 12 view .LVU8
	orr	r1, r1, #32
.LBE20:
.LBE23:
	.loc 1 145 3 view .LVU9
	str	r3, [r4, #20]
	.loc 1 145 13 is_stmt 1 view .LVU10
	.loc 1 146 3 view .LVU11
.LVL2:
.LBB24:
.LBB21:
	.loc 1 490 12 is_stmt 0 view .LVU12
	strb	r1, [sp, #7]
.LVL3:
	.loc 1 492 3 view .LVU13
	ldr	r3, [r4, #20]
	bic	r3, r3, #4096
	str	r3, [r4, #20]
.LBE21:
.LBE24:
	.loc 1 144 1 view .LVU14
	mov	r5, r0
.LVL4:
.LBB25:
.LBI18:
	.loc 1 483 6 is_stmt 1 view .LVU15
.LBB22:
	.loc 1 489 3 view .LVU16
	.loc 1 490 3 view .LVU17
	.loc 1 492 3 view .LVU18
	.loc 1 492 14 view .LVU19
	.loc 1 493 3 view .LVU20
	movs	r1, #1
	add	r0, sp, #7
.LVL5:
	.loc 1 493 3 is_stmt 0 view .LVU21
	bl	txSPI2_nRF_carrier
.LVL6:
	.loc 1 494 3 is_stmt 1 view .LVU22
	movs	r1, #5
	mov	r0, r5
	bl	txSPI2_nRF_carrier
.LVL7:
	.loc 1 495 3 view .LVU23
	ldr	r3, [r4, #20]
	orr	r3, r3, #4096
	str	r3, [r4, #20]
	.loc 1 495 15 view .LVU24
.LVL8:
	.loc 1 495 15 is_stmt 0 view .LVU25
.LBE22:
.LBE25:
	.loc 1 147 3 is_stmt 1 view .LVU26
	ldr	r3, [r4, #20]
	orr	r3, r3, #2048
	str	r3, [r4, #20]
	.loc 1 147 14 view .LVU27
	.loc 1 148 1 is_stmt 0 view .LVU28
	add	sp, sp, #12
	.cfi_def_cfa_offset 12
	@ sp needed
	pop	{r4, r5, pc}
.LVL9:
.L5:
	.loc 1 148 1 view .LVU29
	.align	2
.L4:
	.word	1073873920
	.cfi_endproc
.LFE111:
	.size	setRxAddrNRF24L01, .-setRxAddrNRF24L01
	.align	1
	.p2align 2,,3
	.global	conRegNRF24L01
	.syntax unified
	.thumb
	.thumb_func
	.type	conRegNRF24L01, %function
conRegNRF24L01:
.LVL10:
.LFB112:
	.loc 1 152 1 is_stmt 1 view -0
	.cfi_startproc
	@ args = 0, pretend = 0, frame = 16
	@ frame_needed = 0, uses_anonymous_args = 0
	.loc 1 153 3 view .LVU31
	.loc 1 152 1 is_stmt 0 view .LVU32
	push	{r4, lr}
	.cfi_def_cfa_offset 8
	.cfi_offset 4, -8
	.cfi_offset 14, -4
.LBB28:
.LBB29:
	.loc 1 489 12 view .LVU33
	and	r0, r0, #31
.LVL11:
	.loc 1 489 12 view .LVU34
.LBE29:
.LBE28:
	.loc 1 152 1 view .LVU35
	sub	sp, sp, #16
	.cfi_def_cfa_offset 24
.LVL12:
.LBB32:
.LBI28:
	.loc 1 483 6 is_stmt 1 view .LVU36
.LBB30:
	.loc 1 489 3 view .LVU37
	.loc 1 490 3 view .LVU38
	.loc 1 492 3 is_stmt 0 view .LVU39
	ldr	r4, .L8
.LBE30:
.LBE32:
	.loc 1 152 1 view .LVU40
	strb	r1, [sp, #7]
.LBB33:
.LBB31:
	.loc 1 490 12 view .LVU41
	orr	r0, r0, #32
	strb	r0, [sp, #15]
.LVL13:
	.loc 1 492 3 is_stmt 1 view .LVU42
	ldr	r3, [r4, #20]
	bic	r3, r3, #4096
	str	r3, [r4, #20]
	.loc 1 492 14 view .LVU43
	.loc 1 493 3 view .LVU44
	add	r0, sp, #15
	movs	r1, #1
.LVL14:
	.loc 1 493 3 is_stmt 0 view .LVU45
	bl	txSPI2_nRF_carrier
.LVL15:
	.loc 1 494 3 is_stmt 1 view .LVU46
	movs	r1, #1
	add	r0, sp, #7
.LVL16:
	.loc 1 494 3 is_stmt 0 view .LVU47
	bl	txSPI2_nRF_carrier
.LVL17:
	.loc 1 495 3 is_stmt 1 view .LVU48
	ldr	r3, [r4, #20]
	orr	r3, r3, #4096
	str	r3, [r4, #20]
	.loc 1 495 15 view .LVU49
.LVL18:
	.loc 1 495 15 is_stmt 0 view .LVU50
.LBE31:
.LBE33:
	.loc 1 154 1 view .LVU51
	add	sp, sp, #16
	.cfi_def_cfa_offset 8
	@ sp needed
	pop	{r4, pc}
.L9:
	.align	2
.L8:
	.word	1073873920
	.cfi_endproc
.LFE112:
	.size	conRegNRF24L01, .-conRegNRF24L01
	.align	1
	.p2align 2,,3
	.global	setRxModeNRF24L01
	.syntax unified
	.thumb
	.thumb_func
	.type	setRxModeNRF24L01, %function
setRxModeNRF24L01:
.LFB113:
	.loc 1 160 1 is_stmt 1 view -0
	.cfi_startproc
	@ args = 0, pretend = 0, frame = 8
	@ frame_needed = 0, uses_anonymous_args = 0
	.loc 1 161 2 view .LVU53
	.loc 1 160 1 is_stmt 0 view .LVU54
	push	{r4, lr}
	.cfi_def_cfa_offset 8
	.cfi_offset 4, -8
	.cfi_offset 14, -4
	.loc 1 161 11 view .LVU55
	ldr	r1, .L12
.LBB42:
.LBB43:
.LBB44:
.LBB45:
	.loc 1 492 3 view .LVU56
	ldr	r4, .L12+4
.LBE45:
.LBE44:
.LBE43:
.LBE42:
	.loc 1 160 1 view .LVU57
	sub	sp, sp, #8
	.cfi_def_cfa_offset 16
	movs	r2, #11
	.loc 1 161 11 view .LVU58
	movs	r0, #0
.LBB52:
.LBB50:
.LBB48:
.LBB46:
	.loc 1 490 12 view .LVU59
	movs	r3, #32
	strb	r2, [sp, #6]
.LBE46:
.LBE48:
.LBE50:
.LBE52:
	.loc 1 161 11 view .LVU60
	strb	r0, [r1]
	.loc 1 163 2 is_stmt 1 view .LVU61
.LVL19:
.LBB53:
.LBI42:
	.loc 1 151 6 view .LVU62
.LBB51:
	.loc 1 153 3 view .LVU63
.LBB49:
.LBI44:
	.loc 1 483 6 view .LVU64
.LBB47:
	.loc 1 489 3 view .LVU65
	.loc 1 490 3 view .LVU66
	.loc 1 490 12 is_stmt 0 view .LVU67
	strb	r3, [sp, #7]
.LVL20:
	.loc 1 492 3 is_stmt 1 view .LVU68
	ldr	r3, [r4, #20]
	bic	r3, r3, #4096
	str	r3, [r4, #20]
	.loc 1 492 14 view .LVU69
	.loc 1 493 3 view .LVU70
	add	r0, sp, #7
	movs	r1, #1
	bl	txSPI2_nRF_carrier
.LVL21:
	.loc 1 494 3 view .LVU71
	movs	r1, #1
	add	r0, sp, #6
.LVL22:
	.loc 1 494 3 is_stmt 0 view .LVU72
	bl	txSPI2_nRF_carrier
.LVL23:
	.loc 1 495 3 is_stmt 1 view .LVU73
	ldr	r3, [r4, #20]
	orr	r3, r3, #4096
	str	r3, [r4, #20]
	.loc 1 495 15 view .LVU74
.LVL24:
	.loc 1 495 15 is_stmt 0 view .LVU75
.LBE47:
.LBE49:
.LBE51:
.LBE53:
	.loc 1 164 2 is_stmt 1 view .LVU76
	ldr	r3, [r4, #20]
	orr	r3, r3, #2048
	str	r3, [r4, #20]
	.loc 1 164 13 view .LVU77
	.loc 1 165 2 view .LVU78
	movs	r0, #130
	bl	delay_us
.LVL25:
	.loc 1 166 2 view .LVU79
	.loc 1 166 2 is_stmt 0 view .LVU80
	movs	r2, #48
.LBB54:
.LBB55:
.LBB56:
.LBB57:
	.loc 1 490 12 view .LVU81
	movs	r3, #39
	strb	r2, [sp, #6]
.LVL26:
	.loc 1 490 12 view .LVU82
.LBE57:
.LBE56:
.LBE55:
.LBI54:
	.loc 1 151 6 is_stmt 1 view .LVU83
.LBB60:
	.loc 1 153 3 view .LVU84
.LBB59:
.LBI56:
	.loc 1 483 6 view .LVU85
.LBB58:
	.loc 1 489 3 view .LVU86
	.loc 1 490 3 view .LVU87
	.loc 1 490 12 is_stmt 0 view .LVU88
	strb	r3, [sp, #7]
.LVL27:
	.loc 1 492 3 is_stmt 1 view .LVU89
	ldr	r3, [r4, #20]
	bic	r3, r3, #4096
	str	r3, [r4, #20]
	.loc 1 492 14 view .LVU90
	.loc 1 493 3 view .LVU91
	add	r0, sp, #7
	movs	r1, #1
	bl	txSPI2_nRF_carrier
.LVL28:
	.loc 1 494 3 view .LVU92
	movs	r1, #1
	add	r0, sp, #6
.LVL29:
	.loc 1 494 3 is_stmt 0 view .LVU93
	bl	txSPI2_nRF_carrier
.LVL30:
	.loc 1 495 3 is_stmt 1 view .LVU94
	ldr	r3, [r4, #20]
	orr	r3, r3, #4096
	str	r3, [r4, #20]
	.loc 1 495 15 view .LVU95
.LVL31:
	.loc 1 495 15 is_stmt 0 view .LVU96
.LBE58:
.LBE59:
.LBE60:
.LBE54:
	.loc 1 167 1 view .LVU97
	add	sp, sp, #8
	.cfi_def_cfa_offset 8
	@ sp needed
	pop	{r4, pc}
.L13:
	.align	2
.L12:
	.word	.LANCHOR0
	.word	1073873920
	.cfi_endproc
.LFE113:
	.size	setRxModeNRF24L01, .-setRxModeNRF24L01
	.align	1
	.p2align 2,,3
	.global	initnRF24L01
	.syntax unified
	.thumb
	.thumb_func
	.type	initnRF24L01, %function
initnRF24L01:
.LVL32:
.LFB110:
	.loc 1 23 1 is_stmt 1 view -0
	.cfi_startproc
	@ args = 0, pretend = 0, frame = 8
	@ frame_needed = 0, uses_anonymous_args = 0
	.loc 1 38 3 view .LVU99
	.loc 1 23 1 is_stmt 0 view .LVU100
	push	{r4, r5, r6, lr}
	.cfi_def_cfa_offset 16
	.cfi_offset 4, -16
	.cfi_offset 5, -12
	.cfi_offset 6, -8
	.cfi_offset 14, -4
	.loc 1 38 24 view .LVU101
	ldr	r5, .L18
	.loc 1 41 20 view .LVU102
	ldr	r2, .L18+4
	.loc 1 38 24 view .LVU103
	strb	r0, [r5, #1]
	.loc 1 39 3 is_stmt 1 view .LVU104
	.loc 1 39 28 is_stmt 0 view .LVU105
	ldrb	r1, [r5, #1]	@ zero_extendqisi2
	.loc 1 65 10 view .LVU106
	ldr	r4, .L18+8
	.loc 1 41 20 view .LVU107
	sub	r3, r2, #8
	.loc 1 23 1 view .LVU108
	sub	sp, sp, #8
	.cfi_def_cfa_offset 24
	.loc 1 41 20 view .LVU109
	cmp	r1, #0
	it	ne
	movne	r3, r2
	.loc 1 53 3 view .LVU110
	movs	r0, #16
.LVL33:
	.loc 1 53 3 view .LVU111
	str	r3, [r5, #4]
	.loc 1 53 3 is_stmt 1 view .LVU112
	bl	initSPI2_nRF24lO1_carrier
.LVL34:
	.loc 1 65 5 view .LVU113
	.loc 1 65 10 is_stmt 0 view .LVU114
	ldr	r3, [r4]
	.loc 1 65 18 view .LVU115
	bic	r3, r3, #12582912
	str	r3, [r4]
	.loc 1 66 5 is_stmt 1 view .LVU116
	.loc 1 66 10 is_stmt 0 view .LVU117
	ldr	r3, [r4]
	.loc 1 66 18 view .LVU118
	orr	r3, r3, #4194304
	str	r3, [r4]
	.loc 1 67 5 is_stmt 1 view .LVU119
	.loc 1 67 10 is_stmt 0 view .LVU120
	ldr	r3, [r4, #4]
	.loc 1 67 19 view .LVU121
	bic	r3, r3, #12582912
	str	r3, [r4, #4]
	.loc 1 68 5 is_stmt 1 view .LVU122
	.loc 1 68 10 is_stmt 0 view .LVU123
	ldr	r3, [r4, #8]
	.loc 1 68 20 view .LVU124
	orr	r3, r3, #8388608
	str	r3, [r4, #8]
	.loc 1 72 3 is_stmt 1 view .LVU125
	ldr	r3, [r4, #20]
	bic	r3, r3, #2048
	str	r3, [r4, #20]
	.loc 1 72 13 view .LVU126
	.loc 1 82 3 view .LVU127
	ldr	r3, [r4, #20]
	orr	r3, r3, #4096
	str	r3, [r4, #20]
	.loc 1 82 15 view .LVU128
	.loc 1 84 3 view .LVU129
	movs	r0, #100
	bl	delay_ms
.LVL35:
	.loc 1 98 3 view .LVU130
.LBB85:
.LBI85:
	.loc 1 518 6 view .LVU131
.LBB86:
	.loc 1 520 5 view .LVU132
	.loc 1 523 5 view .LVU133
	movs	r3, #6
	strb	r3, [sp, #6]
.LVL36:
.LBB87:
.LBI87:
	.loc 1 190 9 view .LVU134
.LBB88:
	.loc 1 192 3 view .LVU135
	.loc 1 193 3 view .LVU136
	.loc 1 197 3 view .LVU137
	ldr	r3, [r4, #20]
.LVL37:
	.loc 1 197 3 is_stmt 0 view .LVU138
	bic	r3, r3, #4096
	str	r3, [r4, #20]
.LVL38:
	.loc 1 197 14 is_stmt 1 view .LVU139
	.loc 1 198 3 view .LVU140
	add	r0, sp, #6
	movs	r1, #1
	bl	txSPI2_nRF_carrier
.LVL39:
	.loc 1 199 3 view .LVU141
	add	r0, sp, #7
	movs	r1, #1
	bl	rxSPI2_nRF_carrier
.LVL40:
	.loc 1 200 3 view .LVU142
	ldr	r3, [r4, #20]
	orr	r3, r3, #4096
	str	r3, [r4, #20]
	.loc 1 200 15 view .LVU143
	.loc 1 201 3 view .LVU144
	.loc 1 201 10 is_stmt 0 view .LVU145
	ldrb	r3, [sp, #7]	@ zero_extendqisi2
.LVL41:
	.loc 1 201 10 view .LVU146
.LBE88:
.LBE87:
	.loc 1 526 5 is_stmt 1 view .LVU147
	.loc 1 528 5 view .LVU148
	.loc 1 526 14 is_stmt 0 view .LVU149
	bic	r3, r3, #38
	.loc 1 528 14 view .LVU150
	orr	r3, r3, #14
	strb	r3, [sp, #6]
	.loc 1 529 5 is_stmt 1 view .LVU151
.LVL42:
.LBB89:
.LBI89:
	.loc 1 483 6 view .LVU152
.LBB90:
	.loc 1 489 3 view .LVU153
	.loc 1 490 3 view .LVU154
	.loc 1 490 12 is_stmt 0 view .LVU155
	movs	r3, #38
	strb	r3, [sp, #7]
.LVL43:
	.loc 1 492 3 is_stmt 1 view .LVU156
	ldr	r3, [r4, #20]
	bic	r3, r3, #4096
	str	r3, [r4, #20]
	.loc 1 492 14 view .LVU157
	.loc 1 493 3 view .LVU158
	add	r0, sp, #7
	movs	r1, #1
	bl	txSPI2_nRF_carrier
.LVL44:
	.loc 1 494 3 view .LVU159
	add	r0, sp, #6
.LVL45:
	.loc 1 494 3 is_stmt 0 view .LVU160
	movs	r1, #1
	bl	txSPI2_nRF_carrier
.LVL46:
	.loc 1 495 3 is_stmt 1 view .LVU161
	ldr	r3, [r4, #20]
.LBE90:
.LBE89:
.LBE86:
.LBE85:
	.loc 1 100 3 is_stmt 0 view .LVU162
	ldr	r5, [r5, #4]
.LBB94:
.LBB93:
.LBB92:
.LBB91:
	.loc 1 495 3 view .LVU163
	orr	r3, r3, #4096
	str	r3, [r4, #20]
	.loc 1 495 15 is_stmt 1 view .LVU164
.LVL47:
	.loc 1 495 15 is_stmt 0 view .LVU165
.LBE91:
.LBE92:
.LBE93:
.LBE94:
	.loc 1 100 3 is_stmt 1 view .LVU166
.LBB95:
.LBI95:
	.loc 1 143 6 view .LVU167
.LBB96:
	.loc 1 145 3 view .LVU168
	ldr	r3, [r4, #20]
	bic	r3, r3, #2048
	str	r3, [r4, #20]
	.loc 1 145 13 view .LVU169
	.loc 1 146 3 view .LVU170
.LVL48:
.LBB97:
.LBI97:
	.loc 1 483 6 view .LVU171
.LBB98:
	.loc 1 489 3 view .LVU172
	.loc 1 490 3 view .LVU173
	.loc 1 490 12 is_stmt 0 view .LVU174
	movs	r3, #43
	strb	r3, [sp, #7]
.LVL49:
	.loc 1 492 3 is_stmt 1 view .LVU175
	ldr	r3, [r4, #20]
	bic	r3, r3, #4096
	str	r3, [r4, #20]
	.loc 1 492 14 view .LVU176
	.loc 1 493 3 view .LVU177
	add	r0, sp, #7
	movs	r1, #1
	bl	txSPI2_nRF_carrier
.LVL50:
	.loc 1 494 3 view .LVU178
	mov	r0, r5
	movs	r1, #5
	bl	txSPI2_nRF_carrier
.LVL51:
	.loc 1 495 3 view .LVU179
	ldr	r3, [r4, #20]
	orr	r3, r3, #4096
	str	r3, [r4, #20]
	.loc 1 495 15 view .LVU180
.LVL52:
	.loc 1 495 15 is_stmt 0 view .LVU181
.LBE98:
.LBE97:
	.loc 1 147 3 is_stmt 1 view .LVU182
	ldr	r3, [r4, #20]
	orr	r3, r3, #2048
	movs	r5, #1
.LVL53:
	.loc 1 147 3 is_stmt 0 view .LVU183
	str	r3, [r4, #20]
	.loc 1 147 14 is_stmt 1 view .LVU184
.LVL54:
	.loc 1 147 14 is_stmt 0 view .LVU185
.LBE96:
.LBE95:
	.loc 1 106 3 is_stmt 1 view .LVU186
.LBB99:
.LBB100:
.LBB101:
.LBB102:
	.loc 1 490 12 is_stmt 0 view .LVU187
	movs	r3, #37
	strb	r5, [sp, #6]
.LVL55:
	.loc 1 490 12 view .LVU188
.LBE102:
.LBE101:
.LBE100:
.LBI99:
	.loc 1 151 6 is_stmt 1 view .LVU189
.LBB105:
	.loc 1 153 3 view .LVU190
.LBB104:
.LBI101:
	.loc 1 483 6 view .LVU191
.LBB103:
	.loc 1 489 3 view .LVU192
	.loc 1 490 3 view .LVU193
	.loc 1 490 12 is_stmt 0 view .LVU194
	strb	r3, [sp, #7]
.LVL56:
	.loc 1 492 3 is_stmt 1 view .LVU195
	ldr	r3, [r4, #20]
	bic	r3, r3, #4096
	str	r3, [r4, #20]
	.loc 1 492 14 view .LVU196
	.loc 1 493 3 view .LVU197
	mov	r1, r5
	add	r0, sp, #7
	bl	txSPI2_nRF_carrier
.LVL57:
	.loc 1 494 3 view .LVU198
	mov	r1, r5
	add	r0, sp, #6
.LVL58:
	.loc 1 494 3 is_stmt 0 view .LVU199
	bl	txSPI2_nRF_carrier
.LVL59:
	.loc 1 495 3 is_stmt 1 view .LVU200
	ldr	r3, [r4, #20]
	orr	r3, r3, #4096
	str	r3, [r4, #20]
	.loc 1 495 15 view .LVU201
.LVL60:
	.loc 1 495 15 is_stmt 0 view .LVU202
.LBE103:
.LBE104:
.LBE105:
.LBE99:
	.loc 1 115 3 is_stmt 1 view .LVU203
	.loc 1 115 3 is_stmt 0 view .LVU204
	movs	r6, #32
.LBB106:
.LBB107:
.LBB108:
.LBB109:
	.loc 1 490 12 view .LVU205
	movs	r3, #49
	strb	r6, [sp, #6]
.LVL61:
	.loc 1 490 12 view .LVU206
.LBE109:
.LBE108:
.LBE107:
.LBI106:
	.loc 1 151 6 is_stmt 1 view .LVU207
.LBB112:
	.loc 1 153 3 view .LVU208
.LBB111:
.LBI108:
	.loc 1 483 6 view .LVU209
.LBB110:
	.loc 1 489 3 view .LVU210
	.loc 1 490 3 view .LVU211
	.loc 1 490 12 is_stmt 0 view .LVU212
	strb	r3, [sp, #7]
.LVL62:
	.loc 1 492 3 is_stmt 1 view .LVU213
	ldr	r3, [r4, #20]
	bic	r3, r3, #4096
	str	r3, [r4, #20]
	.loc 1 492 14 view .LVU214
	.loc 1 493 3 view .LVU215
	mov	r1, r5
	add	r0, sp, #7
	bl	txSPI2_nRF_carrier
.LVL63:
	.loc 1 494 3 view .LVU216
	mov	r1, r5
	add	r0, sp, #6
.LVL64:
	.loc 1 494 3 is_stmt 0 view .LVU217
	bl	txSPI2_nRF_carrier
.LVL65:
	.loc 1 495 3 is_stmt 1 view .LVU218
	ldr	r3, [r4, #20]
	orr	r3, r3, #4096
	str	r3, [r4, #20]
	.loc 1 495 15 view .LVU219
.LVL66:
	.loc 1 495 15 is_stmt 0 view .LVU220
.LBE110:
.LBE111:
.LBE112:
.LBE106:
	.loc 1 116 3 is_stmt 1 view .LVU221
.LBB113:
.LBB114:
.LBB115:
.LBB116:
	.loc 1 490 12 is_stmt 0 view .LVU222
	movs	r3, #50
	strb	r6, [sp, #6]
.LVL67:
	.loc 1 490 12 view .LVU223
.LBE116:
.LBE115:
.LBE114:
.LBI113:
	.loc 1 151 6 is_stmt 1 view .LVU224
.LBB119:
	.loc 1 153 3 view .LVU225
.LBB118:
.LBI115:
	.loc 1 483 6 view .LVU226
.LBB117:
	.loc 1 489 3 view .LVU227
	.loc 1 490 3 view .LVU228
	.loc 1 490 12 is_stmt 0 view .LVU229
	strb	r3, [sp, #7]
.LVL68:
	.loc 1 492 3 is_stmt 1 view .LVU230
	ldr	r3, [r4, #20]
	bic	r3, r3, #4096
	str	r3, [r4, #20]
	.loc 1 492 14 view .LVU231
	.loc 1 493 3 view .LVU232
	add	r0, sp, #7
	mov	r1, r5
	bl	txSPI2_nRF_carrier
.LVL69:
	.loc 1 494 3 view .LVU233
	mov	r1, r5
	add	r0, sp, #6
.LVL70:
	.loc 1 494 3 is_stmt 0 view .LVU234
	bl	txSPI2_nRF_carrier
.LVL71:
	.loc 1 495 3 is_stmt 1 view .LVU235
	ldr	r3, [r4, #20]
	orr	r3, r3, #4096
	str	r3, [r4, #20]
	.loc 1 495 15 view .LVU236
.LVL72:
	.loc 1 495 15 is_stmt 0 view .LVU237
.LBE117:
.LBE118:
.LBE119:
.LBE113:
	.loc 1 132 3 is_stmt 1 view .LVU238
	bl	setRxModeNRF24L01
.LVL73:
	.loc 1 133 3 view .LVU239
.LBB120:
.LBI120:
	.loc 1 173 6 view .LVU240
.LBB121:
	.loc 1 175 2 view .LVU241
	ldr	r3, [r4, #20]
	bic	r3, r3, #4096
	str	r3, [r4, #20]
	.loc 1 175 13 view .LVU242
	.loc 1 176 2 view .LVU243
	movs	r0, #226
	bl	txByteSPI2_nRF_carrier
.LVL74:
	.loc 1 177 2 view .LVU244
	ldr	r3, [r4, #20]
	orr	r3, r3, #4096
	str	r3, [r4, #20]
	.loc 1 177 14 view .LVU245
.LBE121:
.LBE120:
	.loc 1 139 1 is_stmt 0 view .LVU246
	add	sp, sp, #8
	.cfi_def_cfa_offset 16
	@ sp needed
	pop	{r4, r5, r6, pc}
.L19:
	.align	2
.L18:
	.word	.LANCHOR0
	.word	.LANCHOR1+8
	.word	1073873920
	.cfi_endproc
.LFE110:
	.size	initnRF24L01, .-initnRF24L01
	.align	1
	.p2align 2,,3
	.global	flushRxNRF24L01
	.syntax unified
	.thumb
	.thumb_func
	.type	flushRxNRF24L01, %function
flushRxNRF24L01:
.LFB114:
	.loc 1 174 1 is_stmt 1 view -0
	.cfi_startproc
	@ args = 0, pretend = 0, frame = 0
	@ frame_needed = 0, uses_anonymous_args = 0
	.loc 1 175 2 view .LVU248
	.loc 1 174 1 is_stmt 0 view .LVU249
	push	{r4, lr}
	.cfi_def_cfa_offset 8
	.cfi_offset 4, -8
	.cfi_offset 14, -4
	.loc 1 175 2 view .LVU250
	ldr	r4, .L22
	ldr	r3, [r4, #20]
	bic	r3, r3, #4096
	str	r3, [r4, #20]
	.loc 1 175 13 is_stmt 1 view .LVU251
	.loc 1 176 2 view .LVU252
	movs	r0, #226
	bl	txByteSPI2_nRF_carrier
.LVL75:
	.loc 1 177 2 view .LVU253
	ldr	r3, [r4, #20]
	orr	r3, r3, #4096
	str	r3, [r4, #20]
	.loc 1 177 14 view .LVU254
	.loc 1 178 1 is_stmt 0 view .LVU255
	pop	{r4, pc}
.L23:
	.align	2
.L22:
	.word	1073873920
	.cfi_endproc
.LFE114:
	.size	flushRxNRF24L01, .-flushRxNRF24L01
	.align	1
	.p2align 2,,3
	.global	setTxAddrNRF24L01
	.syntax unified
	.thumb
	.thumb_func
	.type	setTxAddrNRF24L01, %function
setTxAddrNRF24L01:
.LVL76:
.LFB115:
	.loc 1 184 1 is_stmt 1 view -0
	.cfi_startproc
	@ args = 0, pretend = 0, frame = 8
	@ frame_needed = 0, uses_anonymous_args = 0
	.loc 1 185 3 view .LVU257
	.loc 1 184 1 is_stmt 0 view .LVU258
	push	{r4, r5, lr}
	.cfi_def_cfa_offset 12
	.cfi_offset 4, -12
	.cfi_offset 5, -8
	.cfi_offset 14, -4
	sub	sp, sp, #12
	.cfi_def_cfa_offset 24
.LVL77:
.LBB126:
.LBB127:
	.loc 1 492 3 view .LVU259
	ldr	r4, .L26
	.loc 1 490 12 view .LVU260
	movs	r3, #42
	strb	r3, [sp, #7]
.LVL78:
	.loc 1 492 3 view .LVU261
	ldr	r3, [r4, #20]
	bic	r3, r3, #4096
.LBE127:
.LBE126:
	.loc 1 184 1 view .LVU262
	mov	r5, r0
.LVL79:
.LBB130:
.LBI126:
	.loc 1 483 6 is_stmt 1 view .LVU263
.LBB128:
	.loc 1 489 3 view .LVU264
	.loc 1 490 3 view .LVU265
	.loc 1 492 3 view .LVU266
	str	r3, [r4, #20]
	.loc 1 492 14 view .LVU267
	.loc 1 493 3 view .LVU268
	add	r0, sp, #7
.LVL80:
	.loc 1 493 3 is_stmt 0 view .LVU269
	movs	r1, #1
	bl	txSPI2_nRF_carrier
.LVL81:
	.loc 1 494 3 is_stmt 1 view .LVU270
	mov	r0, r5
	movs	r1, #5
	bl	txSPI2_nRF_carrier
.LVL82:
	.loc 1 495 3 view .LVU271
	ldr	r3, [r4, #20]
.LBE128:
.LBE130:
.LBB131:
.LBB132:
	.loc 1 490 12 is_stmt 0 view .LVU272
	movs	r2, #48
.LBE132:
.LBE131:
.LBB134:
.LBB129:
	.loc 1 495 3 view .LVU273
	orr	r3, r3, #4096
	str	r3, [r4, #20]
	.loc 1 495 15 is_stmt 1 view .LVU274
.LVL83:
	.loc 1 495 15 is_stmt 0 view .LVU275
.LBE129:
.LBE134:
	.loc 1 186 3 is_stmt 1 view .LVU276
.LBB135:
.LBI131:
	.loc 1 483 6 view .LVU277
.LBB133:
	.loc 1 489 3 view .LVU278
	.loc 1 490 3 view .LVU279
	.loc 1 490 12 is_stmt 0 view .LVU280
	strb	r2, [sp, #7]
.LVL84:
	.loc 1 492 3 is_stmt 1 view .LVU281
	ldr	r3, [r4, #20]
	bic	r3, r3, #4096
	str	r3, [r4, #20]
	.loc 1 492 14 view .LVU282
	.loc 1 493 3 view .LVU283
	add	r0, sp, #7
	movs	r1, #1
	bl	txSPI2_nRF_carrier
.LVL85:
	.loc 1 494 3 view .LVU284
	movs	r1, #5
	mov	r0, r5
	bl	txSPI2_nRF_carrier
.LVL86:
	.loc 1 495 3 view .LVU285
	ldr	r3, [r4, #20]
	orr	r3, r3, #4096
	str	r3, [r4, #20]
	.loc 1 495 15 view .LVU286
.LVL87:
	.loc 1 495 15 is_stmt 0 view .LVU287
.LBE133:
.LBE135:
	.loc 1 187 1 view .LVU288
	add	sp, sp, #12
	.cfi_def_cfa_offset 12
	@ sp needed
	pop	{r4, r5, pc}
.LVL88:
.L27:
	.loc 1 187 1 view .LVU289
	.align	2
.L26:
	.word	1073873920
	.cfi_endproc
.LFE115:
	.size	setTxAddrNRF24L01, .-setTxAddrNRF24L01
	.align	1
	.p2align 2,,3
	.global	getRegNRF24L01
	.syntax unified
	.thumb
	.thumb_func
	.type	getRegNRF24L01, %function
getRegNRF24L01:
.LVL89:
.LFB116:
	.loc 1 191 1 is_stmt 1 view -0
	.cfi_startproc
	@ args = 0, pretend = 0, frame = 16
	@ frame_needed = 0, uses_anonymous_args = 0
	.loc 1 192 3 view .LVU291
	.loc 1 193 3 view .LVU292
	.loc 1 191 1 is_stmt 0 view .LVU293
	push	{r4, lr}
	.cfi_def_cfa_offset 8
	.cfi_offset 4, -8
	.cfi_offset 14, -4
	sub	sp, sp, #16
	.cfi_def_cfa_offset 24
	.loc 1 197 3 view .LVU294
	ldr	r4, .L30
	.loc 1 193 7 view .LVU295
	and	r0, r0, #31
.LVL90:
	.loc 1 193 7 view .LVU296
	strb	r0, [sp, #7]
	.loc 1 197 3 is_stmt 1 view .LVU297
	ldr	r3, [r4, #20]
	bic	r3, r3, #4096
	str	r3, [r4, #20]
	.loc 1 197 14 view .LVU298
	.loc 1 198 3 view .LVU299
	add	r0, sp, #7
	movs	r1, #1
	bl	txSPI2_nRF_carrier
.LVL91:
	.loc 1 199 3 view .LVU300
	add	r0, sp, #15
	movs	r1, #1
	bl	rxSPI2_nRF_carrier
.LVL92:
	.loc 1 200 3 view .LVU301
	ldr	r3, [r4, #20]
	orr	r3, r3, #4096
	str	r3, [r4, #20]
	.loc 1 200 15 view .LVU302
	.loc 1 201 3 view .LVU303
	.loc 1 202 1 is_stmt 0 view .LVU304
	ldrb	r0, [sp, #15]	@ zero_extendqisi2
	add	sp, sp, #16
	.cfi_def_cfa_offset 8
	@ sp needed
	pop	{r4, pc}
.L31:
	.align	2
.L30:
	.word	1073873920
	.cfi_endproc
.LFE116:
	.size	getRegNRF24L01, .-getRegNRF24L01
	.section	.rodata.str1.4,"aMS",%progbits,1
	.align	2
.LC0:
	.ascii	"TIMEOUT\012\000"
	.text
	.align	1
	.p2align 2,,3
	.global	txPacketNRF24L01
	.syntax unified
	.thumb
	.thumb_func
	.type	txPacketNRF24L01, %function
txPacketNRF24L01:
.LVL93:
.LFB117:
	.loc 1 251 37 is_stmt 1 view -0
	.cfi_startproc
	@ args = 0, pretend = 0, frame = 8
	@ frame_needed = 0, uses_anonymous_args = 0
	.loc 1 252 3 view .LVU306
	.loc 1 251 37 is_stmt 0 view .LVU307
	push	{r4, r5, r6, r7, r8, r9, lr}
	.cfi_def_cfa_offset 28
	.cfi_offset 4, -28
	.cfi_offset 5, -24
	.cfi_offset 6, -20
	.cfi_offset 7, -16
	.cfi_offset 8, -12
	.cfi_offset 9, -8
	.cfi_offset 14, -4
	sub	sp, sp, #12
	.cfi_def_cfa_offset 40
	.loc 1 251 37 view .LVU308
	mov	r8, r0
	.loc 1 252 21 view .LVU309
	bl	getSYSTIMER_TIM7
.LVL94:
	.loc 1 252 21 view .LVU310
	ldr	r6, .L41
.LBB148:
.LBB149:
	.loc 1 197 3 view .LVU311
	ldr	r4, .L41+4
.LBE149:
.LBE148:
	.loc 1 252 21 view .LVU312
	mov	r5, r0
.LVL95:
	.loc 1 253 3 is_stmt 1 view .LVU313
	.loc 1 255 3 view .LVU314
	movs	r7, #7
	.loc 1 255 9 is_stmt 0 view .LVU315
	b	.L33
.LVL96:
.L36:
	.loc 1 255 9 view .LVU316
	strb	r7, [sp, #6]
.LVL97:
.LBB153:
.LBI148:
	.loc 1 190 9 is_stmt 1 view .LVU317
.LBB150:
	.loc 1 192 3 view .LVU318
	.loc 1 193 3 view .LVU319
	.loc 1 197 3 view .LVU320
	ldr	r3, [r4, #20]
	bic	r3, r3, #4096
	str	r3, [r4, #20]
	.loc 1 197 14 view .LVU321
	.loc 1 198 3 view .LVU322
	bl	txSPI2_nRF_carrier
.LVL98:
	.loc 1 199 3 view .LVU323
	mov	r1, r9
	add	r0, sp, #7
	bl	rxSPI2_nRF_carrier
.LVL99:
	.loc 1 200 3 view .LVU324
.LBE150:
.LBE153:
	.loc 1 264 5 view .LVU325
.LBB154:
.LBB151:
	.loc 1 200 3 is_stmt 0 view .LVU326
	ldr	r3, [r4, #20]
	orr	r3, r3, #4096
	str	r3, [r4, #20]
	.loc 1 200 15 is_stmt 1 view .LVU327
	.loc 1 201 3 view .LVU328
	.loc 1 201 10 is_stmt 0 view .LVU329
	ldrb	r3, [sp, #7]	@ zero_extendqisi2
.LVL100:
	.loc 1 201 10 view .LVU330
.LBE151:
.LBE154:
	.loc 1 258 5 is_stmt 1 view .LVU331
	.loc 1 258 8 is_stmt 0 view .LVU332
	tst	r3, #48
	.loc 1 264 9 view .LVU333
	mov	r1, #1000
	mov	r0, r5
	.loc 1 258 8 view .LVU334
	bne	.L39
.LVL101:
	.loc 1 264 9 view .LVU335
	bl	chk4TimeoutSYSTIMER_TIM7
.LVL102:
	.loc 1 264 8 view .LVU336
	cmp	r0, #0
	beq	.L40
.LVL103:
.L33:
	.loc 1 257 5 is_stmt 1 view .LVU337
	.loc 1 255 19 view .LVU338
	ldrb	r3, [r6]	@ zero_extendqisi2
	uxtb	r9, r3
	cmp	r3, #1
.LBB155:
.LBB152:
	.loc 1 198 3 is_stmt 0 view .LVU339
	add	r0, sp, #6
	mov	r1, r9
.LBE152:
.LBE155:
	.loc 1 255 19 view .LVU340
	beq	.L36
.L35:
.LVL104:
.LBB156:
.LBI156:
	.loc 1 251 6 is_stmt 1 view .LVU341
.LBB157:
	.loc 1 270 5 view .LVU342
	ldr	r4, .L41+4
	ldr	r3, [r4, #20]
.LBB158:
.LBB159:
	.loc 1 513 11 is_stmt 0 view .LVU343
	movs	r5, #1
.LVL105:
	.loc 1 513 11 view .LVU344
.LBE159:
.LBE158:
	.loc 1 270 5 view .LVU345
	bic	r3, r3, #2048
	str	r3, [r4, #20]
	.loc 1 270 15 is_stmt 1 view .LVU346
	.loc 1 271 5 view .LVU347
.LBB168:
.LBI158:
	.loc 1 511 6 view .LVU348
.LBB167:
	.loc 1 513 2 view .LVU349
	.loc 1 513 11 is_stmt 0 view .LVU350
	strb	r5, [r6]
	.loc 1 514 2 is_stmt 1 view .LVU351
.LVL106:
	.loc 1 514 2 is_stmt 0 view .LVU352
	movs	r3, #10
.LBB160:
.LBB161:
.LBB162:
.LBB163:
	.loc 1 490 12 view .LVU353
	movs	r6, #32
	strb	r6, [sp, #7]
	strb	r3, [sp, #6]
.LVL107:
	.loc 1 490 12 view .LVU354
.LBE163:
.LBE162:
.LBE161:
.LBI160:
	.loc 1 151 6 is_stmt 1 view .LVU355
.LBB166:
	.loc 1 153 3 view .LVU356
.LBB165:
.LBI162:
	.loc 1 483 6 view .LVU357
.LBB164:
	.loc 1 489 3 view .LVU358
	.loc 1 490 3 view .LVU359
	.loc 1 492 3 view .LVU360
	ldr	r3, [r4, #20]
.LVL108:
	.loc 1 492 3 is_stmt 0 view .LVU361
	bic	r3, r3, #4096
	str	r3, [r4, #20]
.LVL109:
	.loc 1 492 14 is_stmt 1 view .LVU362
	.loc 1 493 3 view .LVU363
	mov	r1, r5
	add	r0, sp, #7
	bl	txSPI2_nRF_carrier
.LVL110:
	.loc 1 494 3 view .LVU364
	mov	r1, r5
	add	r0, sp, #6
.LVL111:
	.loc 1 494 3 is_stmt 0 view .LVU365
	bl	txSPI2_nRF_carrier
.LVL112:
	.loc 1 495 3 is_stmt 1 view .LVU366
	ldr	r3, [r4, #20]
	orr	r3, r3, #4096
	str	r3, [r4, #20]
	.loc 1 495 15 view .LVU367
.LVL113:
	.loc 1 495 15 is_stmt 0 view .LVU368
.LBE164:
.LBE165:
.LBE166:
.LBE160:
.LBE167:
.LBE168:
	.loc 1 272 5 is_stmt 1 view .LVU369
.LBB169:
.LBI169:
	.loc 1 501 6 view .LVU370
.LBB170:
	.loc 1 503 2 view .LVU371
	ldr	r3, [r4, #20]
	bic	r3, r3, #4096
	str	r3, [r4, #20]
	.loc 1 503 13 view .LVU372
	.loc 1 504 2 view .LVU373
	movs	r0, #225
	bl	txByteSPI2_nRF_carrier
.LVL114:
	.loc 1 505 2 view .LVU374
	ldr	r3, [r4, #20]
	orr	r3, r3, #4096
	str	r3, [r4, #20]
	.loc 1 505 14 view .LVU375
.LBE170:
.LBE169:
	.loc 1 273 5 view .LVU376
	ldr	r3, [r4, #20]
	bic	r3, r3, #4096
	str	r3, [r4, #20]
	.loc 1 273 16 view .LVU377
	.loc 1 275 5 view .LVU378
	.loc 1 276 5 is_stmt 0 view .LVU379
	mov	r1, r5
	.loc 1 275 9 view .LVU380
	movs	r3, #160
	.loc 1 276 5 view .LVU381
	add	r0, sp, #7
	.loc 1 275 9 view .LVU382
	strb	r3, [sp, #7]
	.loc 1 276 5 is_stmt 1 view .LVU383
	bl	txSPI2_nRF_carrier
.LVL115:
	.loc 1 277 5 view .LVU384
	mov	r1, r6
	mov	r0, r8
	bl	txSPI2_nRF_carrier
.LVL116:
	.loc 1 280 5 view .LVU385
	ldr	r3, [r4, #20]
	orr	r3, r3, #4096
	str	r3, [r4, #20]
	.loc 1 280 17 view .LVU386
	.loc 1 281 5 view .LVU387
	ldr	r3, [r4, #20]
	orr	r3, r3, #2048
	.loc 1 283 5 is_stmt 0 view .LVU388
	movs	r0, #130
	.loc 1 281 5 view .LVU389
	str	r3, [r4, #20]
	.loc 1 281 16 is_stmt 1 view .LVU390
	.loc 1 283 5 view .LVU391
	bl	delay_us
.LVL117:
	.loc 1 283 5 is_stmt 0 view .LVU392
.LBE157:
.LBE156:
	.loc 1 285 1 view .LVU393
	add	sp, sp, #12
	.cfi_remember_state
	.cfi_def_cfa_offset 28
	@ sp needed
	pop	{r4, r5, r6, r7, r8, r9, pc}
.LVL118:
.L39:
	.cfi_restore_state
	.loc 1 259 7 is_stmt 1 view .LVU394
	.loc 1 259 16 is_stmt 0 view .LVU395
	movs	r3, #0
	strb	r3, [r6]
	.loc 1 260 7 is_stmt 1 view .LVU396
	b	.L35
.LVL119:
.L40:
	.loc 1 265 7 view .LVU397
	ldr	r0, .L41+8
	.loc 1 285 1 is_stmt 0 view .LVU398
	add	sp, sp, #12
	.cfi_def_cfa_offset 28
	@ sp needed
	pop	{r4, r5, r6, r7, r8, r9, lr}
	.cfi_restore 14
	.cfi_restore 9
	.cfi_restore 8
	.cfi_restore 7
	.cfi_restore 6
	.cfi_restore 5
	.cfi_restore 4
	.cfi_def_cfa_offset 0
.LVL120:
	.loc 1 265 7 view .LVU399
	b	printUSART2
.LVL121:
.L42:
	.align	2
.L41:
	.word	.LANCHOR0
	.word	1073873920
	.word	.LC0
	.cfi_endproc
.LFE117:
	.size	txPacketNRF24L01, .-txPacketNRF24L01
	.align	1
	.p2align 2,,3
	.global	txStatusNRF
	.syntax unified
	.thumb
	.thumb_func
	.type	txStatusNRF, %function
txStatusNRF:
.LFB118:
	.loc 1 316 22 is_stmt 1 view -0
	.cfi_startproc
	@ args = 0, pretend = 0, frame = 8
	@ frame_needed = 0, uses_anonymous_args = 0
	.loc 1 317 3 view .LVU401
	.loc 1 318 3 view .LVU402
	.loc 1 316 22 is_stmt 0 view .LVU403
	push	{r4, r5, lr}
	.cfi_def_cfa_offset 12
	.cfi_offset 4, -12
	.cfi_offset 5, -8
	.cfi_offset 14, -4
	.loc 1 318 16 view .LVU404
	ldr	r3, .L51
	ldrb	r3, [r3]	@ zero_extendqisi2
	.loc 1 318 6 view .LVU405
	cmp	r3, #1
	.loc 1 316 22 view .LVU406
	sub	sp, sp, #12
	.cfi_def_cfa_offset 24
	.loc 1 318 6 view .LVU407
	beq	.L50
.L44:
	.loc 1 343 12 view .LVU408
	movs	r4, #0
.L45:
.LVL122:
	.loc 1 345 3 is_stmt 1 view .LVU409
	.loc 1 346 1 is_stmt 0 view .LVU410
	mov	r0, r4
	add	sp, sp, #12
	.cfi_remember_state
	.cfi_def_cfa_offset 12
	@ sp needed
	pop	{r4, r5, pc}
.LVL123:
.L50:
	.cfi_restore_state
	.loc 1 319 5 is_stmt 1 view .LVU411
.LBB173:
.LBB174:
	.loc 1 197 3 is_stmt 0 view .LVU412
	ldr	r5, .L51+4
	uxtb	r4, r3
	movs	r3, #7
	strb	r3, [sp, #6]
.LVL124:
	.loc 1 197 3 view .LVU413
.LBE174:
.LBI173:
	.loc 1 190 9 is_stmt 1 view .LVU414
.LBB175:
	.loc 1 192 3 view .LVU415
	.loc 1 193 3 view .LVU416
	.loc 1 197 3 view .LVU417
	ldr	r3, [r5, #20]
.LVL125:
	.loc 1 197 3 is_stmt 0 view .LVU418
	bic	r3, r3, #4096
	str	r3, [r5, #20]
.LVL126:
	.loc 1 197 14 is_stmt 1 view .LVU419
	.loc 1 198 3 view .LVU420
	add	r0, sp, #6
	mov	r1, r4
	bl	txSPI2_nRF_carrier
.LVL127:
	.loc 1 199 3 view .LVU421
	mov	r1, r4
	add	r0, sp, #7
	bl	rxSPI2_nRF_carrier
.LVL128:
	.loc 1 200 3 view .LVU422
	ldr	r3, [r5, #20]
	orr	r3, r3, #4096
	str	r3, [r5, #20]
	.loc 1 200 15 view .LVU423
	.loc 1 201 3 view .LVU424
	.loc 1 201 10 is_stmt 0 view .LVU425
	ldrb	r3, [sp, #7]	@ zero_extendqisi2
.LVL129:
	.loc 1 201 10 view .LVU426
.LBE175:
.LBE173:
	.loc 1 320 5 is_stmt 1 view .LVU427
	.loc 1 320 8 is_stmt 0 view .LVU428
	tst	r3, #48
	beq	.L45
	.loc 1 322 7 is_stmt 1 view .LVU429
	bl	setRxModeNRF24L01
.LVL130:
	.loc 1 338 7 view .LVU430
	.loc 1 338 7 is_stmt 0 view .LVU431
	b	.L44
.L52:
	.align	2
.L51:
	.word	.LANCHOR0
	.word	1073873920
	.cfi_endproc
.LFE118:
	.size	txStatusNRF, .-txStatusNRF
	.align	1
	.p2align 2,,3
	.global	txDataNRF24L01
	.syntax unified
	.thumb
	.thumb_func
	.type	txDataNRF24L01, %function
txDataNRF24L01:
.LVL131:
.LFB119:
	.loc 1 378 1 is_stmt 1 view -0
	.cfi_startproc
	@ args = 0, pretend = 0, frame = 8
	@ frame_needed = 0, uses_anonymous_args = 0
	.loc 1 379 3 view .LVU433
	.loc 1 378 1 is_stmt 0 view .LVU434
	push	{r4, r5, r6, r7, r8, lr}
	.cfi_def_cfa_offset 24
	.cfi_offset 4, -24
	.cfi_offset 5, -20
	.cfi_offset 6, -16
	.cfi_offset 7, -12
	.cfi_offset 8, -8
	.cfi_offset 14, -4
	sub	sp, sp, #8
	.cfi_def_cfa_offset 32
.LBB186:
.LBB187:
.LBB188:
.LBB189:
	.loc 1 492 3 view .LVU435
	ldr	r5, .L64
.LBE189:
.LBE188:
.LBE187:
.LBE186:
	.loc 1 378 1 view .LVU436
	mov	r6, r1
	mov	r4, r0
	.loc 1 379 21 view .LVU437
	bl	getSYSTIMER_TIM7
.LVL132:
.LBB201:
.LBB198:
.LBB192:
.LBB190:
	.loc 1 490 12 view .LVU438
	movs	r3, #42
	strb	r3, [sp, #7]
	.loc 1 492 3 view .LVU439
	ldr	r3, [r5, #20]
	bic	r3, r3, #4096
	str	r3, [r5, #20]
	.loc 1 493 3 view .LVU440
	movs	r1, #1
.LBE190:
.LBE192:
.LBE198:
.LBE201:
	.loc 1 379 21 view .LVU441
	mov	r7, r0
.LVL133:
	.loc 1 380 3 is_stmt 1 view .LVU442
	.loc 1 381 3 view .LVU443
.LBB202:
.LBI186:
	.loc 1 183 6 view .LVU444
.LBB199:
	.loc 1 185 3 view .LVU445
.LBB193:
.LBI188:
	.loc 1 483 6 view .LVU446
.LBB191:
	.loc 1 489 3 view .LVU447
	.loc 1 490 3 view .LVU448
	.loc 1 492 3 view .LVU449
	.loc 1 492 14 view .LVU450
	.loc 1 493 3 view .LVU451
	add	r0, sp, #7
.LVL134:
	.loc 1 493 3 is_stmt 0 view .LVU452
	bl	txSPI2_nRF_carrier
.LVL135:
	.loc 1 494 3 is_stmt 1 view .LVU453
	movs	r1, #5
	mov	r0, r4
	bl	txSPI2_nRF_carrier
.LVL136:
	.loc 1 495 3 view .LVU454
	ldr	r3, [r5, #20]
	orr	r3, r3, #4096
	str	r3, [r5, #20]
	.loc 1 495 15 view .LVU455
.LVL137:
	.loc 1 495 15 is_stmt 0 view .LVU456
.LBE191:
.LBE193:
	.loc 1 186 3 is_stmt 1 view .LVU457
.LBB194:
.LBI194:
	.loc 1 483 6 view .LVU458
.LBB195:
	.loc 1 489 3 view .LVU459
	.loc 1 490 3 view .LVU460
	.loc 1 490 12 is_stmt 0 view .LVU461
	movs	r3, #48
	strb	r3, [sp, #7]
.LVL138:
	.loc 1 492 3 is_stmt 1 view .LVU462
	ldr	r3, [r5, #20]
	bic	r3, r3, #4096
	str	r3, [r5, #20]
	.loc 1 492 14 view .LVU463
	.loc 1 493 3 view .LVU464
	movs	r1, #1
	add	r0, sp, #7
	bl	txSPI2_nRF_carrier
.LVL139:
	.loc 1 494 3 view .LVU465
	mov	r0, r4
	movs	r1, #5
	bl	txSPI2_nRF_carrier
.LVL140:
	.loc 1 495 3 view .LVU466
	ldr	r3, [r5, #20]
	orr	r3, r3, #4096
.LBE195:
.LBE194:
.LBE199:
.LBE202:
	.loc 1 382 3 is_stmt 0 view .LVU467
	mov	r0, r6
.LBB203:
.LBB200:
.LBB197:
.LBB196:
	.loc 1 495 3 view .LVU468
	str	r3, [r5, #20]
	.loc 1 495 15 is_stmt 1 view .LVU469
.LVL141:
	.loc 1 495 15 is_stmt 0 view .LVU470
.LBE196:
.LBE197:
.LBE200:
.LBE203:
	.loc 1 382 3 is_stmt 1 view .LVU471
	bl	txPacketNRF24L01
.LVL142:
	.loc 1 384 3 view .LVU472
	ldr	r6, .L64+4
.LVL143:
	.loc 1 384 3 is_stmt 0 view .LVU473
	mov	r8, #7
.LVL144:
.L57:
	.loc 1 384 24 is_stmt 1 view .LVU474
.LBB204:
.LBI204:
	.loc 1 316 9 view .LVU475
.LBB205:
	.loc 1 317 3 view .LVU476
	.loc 1 318 3 view .LVU477
	.loc 1 318 16 is_stmt 0 view .LVU478
	ldrb	r3, [r6]	@ zero_extendqisi2
	.loc 1 318 6 view .LVU479
	cmp	r3, #1
	.loc 1 318 16 view .LVU480
	uxtb	r4, r3
	.loc 1 318 6 view .LVU481
	beq	.L62
.L54:
.LBE205:
.LBE204:
	.loc 1 380 11 view .LVU482
	movs	r4, #0
.LVL145:
	.loc 1 390 3 is_stmt 1 view .LVU483
	.loc 1 391 1 is_stmt 0 view .LVU484
	mov	r0, r4
	add	sp, sp, #8
	.cfi_remember_state
	.cfi_def_cfa_offset 24
	@ sp needed
	pop	{r4, r5, r6, r7, r8, pc}
.LVL146:
.L62:
	.cfi_restore_state
.LBB214:
.LBB210:
	.loc 1 319 5 is_stmt 1 view .LVU485
	strb	r8, [sp, #6]
.LVL147:
.LBB206:
.LBI206:
	.loc 1 190 9 view .LVU486
.LBB207:
	.loc 1 192 3 view .LVU487
	.loc 1 193 3 view .LVU488
	.loc 1 197 3 view .LVU489
	ldr	r3, [r5, #20]
	bic	r3, r3, #4096
	str	r3, [r5, #20]
	.loc 1 197 14 view .LVU490
	.loc 1 198 3 view .LVU491
	mov	r1, r4
	add	r0, sp, #6
	bl	txSPI2_nRF_carrier
.LVL148:
	.loc 1 199 3 view .LVU492
	mov	r1, r4
	add	r0, sp, #7
	bl	rxSPI2_nRF_carrier
.LVL149:
	.loc 1 200 3 view .LVU493
	.loc 1 200 3 is_stmt 0 view .LVU494
.LBE207:
.LBE206:
	.loc 1 345 3 is_stmt 1 view .LVU495
	.loc 1 345 3 is_stmt 0 view .LVU496
.LBE210:
.LBE214:
	.loc 1 385 5 is_stmt 1 view .LVU497
.LBB215:
.LBB211:
.LBB209:
.LBB208:
	.loc 1 200 3 is_stmt 0 view .LVU498
	ldr	r3, [r5, #20]
	orr	r3, r3, #4096
	str	r3, [r5, #20]
	.loc 1 200 15 is_stmt 1 view .LVU499
	.loc 1 201 3 view .LVU500
	.loc 1 201 10 is_stmt 0 view .LVU501
	ldrb	r3, [sp, #7]	@ zero_extendqisi2
.LVL150:
	.loc 1 201 10 view .LVU502
.LBE208:
.LBE209:
	.loc 1 320 5 is_stmt 1 view .LVU503
	.loc 1 320 8 is_stmt 0 view .LVU504
	tst	r3, #48
.LBE211:
.LBE215:
	.loc 1 385 9 view .LVU505
	mov	r1, #100
	mov	r0, r7
.LBB216:
.LBB212:
	.loc 1 320 8 view .LVU506
	bne	.L63
.LVL151:
	.loc 1 320 8 view .LVU507
.LBE212:
.LBE216:
	.loc 1 385 9 view .LVU508
	bl	chk4TimeoutSYSTIMER_TIM7
.LVL152:
	.loc 1 385 8 view .LVU509
	cmp	r0, #0
	bne	.L57
.LVL153:
	.loc 1 390 3 is_stmt 1 view .LVU510
	.loc 1 391 1 is_stmt 0 view .LVU511
	mov	r0, r4
	add	sp, sp, #8
	.cfi_remember_state
	.cfi_def_cfa_offset 24
	@ sp needed
	pop	{r4, r5, r6, r7, r8, pc}
.LVL154:
.L63:
	.cfi_restore_state
.LBB217:
.LBB213:
	.loc 1 322 7 is_stmt 1 view .LVU512
	bl	setRxModeNRF24L01
.LVL155:
	.loc 1 338 7 view .LVU513
	.loc 1 345 3 view .LVU514
	.loc 1 345 3 is_stmt 0 view .LVU515
	b	.L54
.L65:
	.align	2
.L64:
	.word	1073873920
	.word	.LANCHOR0
.LBE213:
.LBE217:
	.cfi_endproc
.LFE119:
	.size	txDataNRF24L01, .-txDataNRF24L01
	.align	1
	.p2align 2,,3
	.global	dataReadyNRF24L01
	.syntax unified
	.thumb
	.thumb_func
	.type	dataReadyNRF24L01, %function
dataReadyNRF24L01:
.LFB120:
	.loc 1 394 1 is_stmt 1 view -0
	.cfi_startproc
	@ args = 0, pretend = 0, frame = 8
	@ frame_needed = 0, uses_anonymous_args = 0
	.loc 1 395 3 view .LVU517
	.loc 1 394 1 is_stmt 0 view .LVU518
	push	{r4, lr}
	.cfi_def_cfa_offset 8
	.cfi_offset 4, -8
	.cfi_offset 14, -4
	sub	sp, sp, #8
	.cfi_def_cfa_offset 16
.LBB222:
.LBB223:
	.loc 1 197 3 view .LVU519
	ldr	r4, .L71
	movs	r3, #7
	strb	r3, [sp, #6]
.LVL156:
	.loc 1 197 3 view .LVU520
.LBE223:
.LBI222:
	.loc 1 190 9 is_stmt 1 view .LVU521
.LBB224:
	.loc 1 192 3 view .LVU522
	.loc 1 193 3 view .LVU523
	.loc 1 197 3 view .LVU524
	ldr	r3, [r4, #20]
.LVL157:
	.loc 1 197 3 is_stmt 0 view .LVU525
	bic	r3, r3, #4096
	str	r3, [r4, #20]
.LVL158:
	.loc 1 197 14 is_stmt 1 view .LVU526
	.loc 1 198 3 view .LVU527
	movs	r1, #1
	add	r0, sp, #6
	bl	txSPI2_nRF_carrier
.LVL159:
	.loc 1 199 3 view .LVU528
	movs	r1, #1
	add	r0, sp, #7
	bl	rxSPI2_nRF_carrier
.LVL160:
	.loc 1 200 3 view .LVU529
	ldr	r3, [r4, #20]
	orr	r3, r3, #4096
	str	r3, [r4, #20]
	.loc 1 200 15 view .LVU530
	.loc 1 201 3 view .LVU531
	.loc 1 201 10 is_stmt 0 view .LVU532
	ldrb	r3, [sp, #7]	@ zero_extendqisi2
.LVL161:
	.loc 1 201 10 view .LVU533
.LBE224:
.LBE222:
	.loc 1 398 3 is_stmt 1 view .LVU534
	.loc 1 398 6 is_stmt 0 view .LVU535
	lsls	r3, r3, #25
	bpl	.L70
	.loc 1 401 12 view .LVU536
	movs	r0, #1
.LVL162:
	.loc 1 413 3 is_stmt 1 view .LVU537
	.loc 1 414 1 is_stmt 0 view .LVU538
	add	sp, sp, #8
	.cfi_remember_state
	.cfi_def_cfa_offset 8
	@ sp needed
	pop	{r4, pc}
.LVL163:
.L70:
	.cfi_restore_state
	.loc 1 404 5 is_stmt 1 view .LVU539
	movs	r3, #23
	strb	r3, [sp, #6]
.LVL164:
.LBB225:
.LBI225:
	.loc 1 190 9 view .LVU540
.LBB226:
	.loc 1 192 3 view .LVU541
	.loc 1 193 3 view .LVU542
	.loc 1 197 3 view .LVU543
	ldr	r3, [r4, #20]
.LVL165:
	.loc 1 197 3 is_stmt 0 view .LVU544
	bic	r3, r3, #4096
	str	r3, [r4, #20]
.LVL166:
	.loc 1 197 14 is_stmt 1 view .LVU545
	.loc 1 198 3 view .LVU546
	add	r0, sp, #6
	movs	r1, #1
	bl	txSPI2_nRF_carrier
.LVL167:
	.loc 1 199 3 view .LVU547
	add	r0, sp, #7
	movs	r1, #1
	bl	rxSPI2_nRF_carrier
.LVL168:
	.loc 1 200 3 view .LVU548
	ldr	r3, [r4, #20]
	orr	r3, r3, #4096
	str	r3, [r4, #20]
	.loc 1 200 15 view .LVU549
	.loc 1 201 3 view .LVU550
	.loc 1 201 10 is_stmt 0 view .LVU551
	ldrb	r0, [sp, #7]	@ zero_extendqisi2
.LVL169:
	.loc 1 201 10 view .LVU552
.LBE226:
.LBE225:
	.loc 1 406 5 is_stmt 1 view .LVU553
	.loc 1 407 5 view .LVU554
	mvns	r0, r0
	and	r0, r0, #1
.LVL170:
	.loc 1 413 3 view .LVU555
	.loc 1 414 1 is_stmt 0 view .LVU556
	add	sp, sp, #8
	.cfi_def_cfa_offset 8
	@ sp needed
	pop	{r4, pc}
.L72:
	.align	2
.L71:
	.word	1073873920
	.cfi_endproc
.LFE120:
	.size	dataReadyNRF24L01, .-dataReadyNRF24L01
	.align	1
	.p2align 2,,3
	.global	rxDataNRF24L01
	.syntax unified
	.thumb
	.thumb_func
	.type	rxDataNRF24L01, %function
rxDataNRF24L01:
.LVL171:
.LFB121:
	.loc 1 420 1 is_stmt 1 view -0
	.cfi_startproc
	@ args = 0, pretend = 0, frame = 8
	@ frame_needed = 0, uses_anonymous_args = 0
	.loc 1 422 3 view .LVU558
	.loc 1 424 3 view .LVU559
	.loc 1 420 1 is_stmt 0 view .LVU560
	push	{r4, r5, lr}
	.cfi_def_cfa_offset 12
	.cfi_offset 4, -12
	.cfi_offset 5, -8
	.cfi_offset 14, -4
	.loc 1 424 3 view .LVU561
	ldr	r4, .L75
	ldr	r3, [r4, #20]
	.loc 1 420 1 view .LVU562
	sub	sp, sp, #12
	.cfi_def_cfa_offset 24
	.loc 1 424 3 view .LVU563
	bic	r3, r3, #4096
	str	r3, [r4, #20]
	.loc 1 424 14 is_stmt 1 view .LVU564
	.loc 1 426 3 view .LVU565
	.loc 1 420 1 is_stmt 0 view .LVU566
	mov	r5, r0
	.loc 1 426 7 view .LVU567
	movs	r3, #97
	.loc 1 427 3 view .LVU568
	add	r0, sp, #5
.LVL172:
	.loc 1 427 3 view .LVU569
	movs	r1, #1
	.loc 1 426 7 view .LVU570
	strb	r3, [sp, #5]
	.loc 1 427 3 is_stmt 1 view .LVU571
	bl	txSPI2_nRF_carrier
.LVL173:
	.loc 1 428 3 view .LVU572
	mov	r0, r5
	movs	r1, #32
	bl	rxSPI2_nRF_carrier
.LVL174:
	.loc 1 429 3 view .LVU573
	ldr	r3, [r4, #20]
.LBB231:
.LBB232:
.LBB233:
.LBB234:
	.loc 1 490 12 is_stmt 0 view .LVU574
	movs	r2, #39
	movs	r1, #64
.LBE234:
.LBE233:
.LBE232:
.LBE231:
	.loc 1 429 3 view .LVU575
	orr	r3, r3, #4096
	str	r3, [r4, #20]
	.loc 1 429 15 is_stmt 1 view .LVU576
	.loc 1 431 3 view .LVU577
.LVL175:
	.loc 1 431 3 is_stmt 0 view .LVU578
	strb	r1, [sp, #6]
.LVL176:
.LBB238:
.LBI231:
	.loc 1 151 6 is_stmt 1 view .LVU579
.LBB237:
	.loc 1 153 3 view .LVU580
.LBB236:
.LBI233:
	.loc 1 483 6 view .LVU581
.LBB235:
	.loc 1 489 3 view .LVU582
	.loc 1 490 3 view .LVU583
	.loc 1 490 12 is_stmt 0 view .LVU584
	strb	r2, [sp, #7]
.LVL177:
	.loc 1 492 3 is_stmt 1 view .LVU585
	ldr	r3, [r4, #20]
	bic	r3, r3, #4096
	str	r3, [r4, #20]
	.loc 1 492 14 view .LVU586
	.loc 1 493 3 view .LVU587
	add	r0, sp, #7
	movs	r1, #1
.LVL178:
	.loc 1 493 3 is_stmt 0 view .LVU588
	bl	txSPI2_nRF_carrier
.LVL179:
	.loc 1 494 3 is_stmt 1 view .LVU589
	movs	r1, #1
	add	r0, sp, #6
.LVL180:
	.loc 1 494 3 is_stmt 0 view .LVU590
	bl	txSPI2_nRF_carrier
.LVL181:
	.loc 1 495 3 is_stmt 1 view .LVU591
	ldr	r3, [r4, #20]
	orr	r3, r3, #4096
	str	r3, [r4, #20]
	.loc 1 495 15 view .LVU592
.LVL182:
	.loc 1 495 15 is_stmt 0 view .LVU593
.LBE235:
.LBE236:
.LBE237:
.LBE238:
	.loc 1 434 1 view .LVU594
	add	sp, sp, #12
	.cfi_def_cfa_offset 12
	@ sp needed
	pop	{r4, r5, pc}
.LVL183:
.L76:
	.loc 1 434 1 view .LVU595
	.align	2
.L75:
	.word	1073873920
	.cfi_endproc
.LFE121:
	.size	rxDataNRF24L01, .-rxDataNRF24L01
	.align	1
	.p2align 2,,3
	.global	txContCarrierNRF24L01
	.syntax unified
	.thumb
	.thumb_func
	.type	txContCarrierNRF24L01, %function
txContCarrierNRF24L01:
.LVL184:
.LFB122:
	.loc 1 442 1 is_stmt 1 view -0
	.cfi_startproc
	@ args = 0, pretend = 0, frame = 8
	@ frame_needed = 0, uses_anonymous_args = 0
	.loc 1 443 3 view .LVU597
	.loc 1 445 3 view .LVU598
	.loc 1 442 1 is_stmt 0 view .LVU599
	push	{r4, r5, r6, r7, r8, lr}
	.cfi_def_cfa_offset 24
	.cfi_offset 4, -24
	.cfi_offset 5, -20
	.cfi_offset 6, -16
	.cfi_offset 7, -12
	.cfi_offset 8, -8
	.cfi_offset 14, -4
	.loc 1 448 10 view .LVU600
	ldr	r4, .L79
	.loc 1 442 1 view .LVU601
	sub	sp, sp, #8
	.cfi_def_cfa_offset 32
	.loc 1 442 1 view .LVU602
	mov	r6, r0
	.loc 1 445 3 view .LVU603
	movs	r0, #32
.LVL185:
	.loc 1 442 1 view .LVU604
	mov	r5, r1
	.loc 1 445 3 view .LVU605
	bl	initSPI2_nRF24lO1_carrier
.LVL186:
	.loc 1 448 5 is_stmt 1 view .LVU606
	.loc 1 448 10 is_stmt 0 view .LVU607
	ldr	r3, [r4]
	.loc 1 448 18 view .LVU608
	bic	r3, r3, #12582912
	str	r3, [r4]
	.loc 1 449 5 is_stmt 1 view .LVU609
	.loc 1 449 10 is_stmt 0 view .LVU610
	ldr	r3, [r4]
	.loc 1 449 18 view .LVU611
	orr	r3, r3, #4194304
	str	r3, [r4]
	.loc 1 450 5 is_stmt 1 view .LVU612
	.loc 1 450 10 is_stmt 0 view .LVU613
	ldr	r3, [r4, #4]
	.loc 1 450 19 view .LVU614
	bic	r3, r3, #2048
	str	r3, [r4, #4]
	.loc 1 451 5 is_stmt 1 view .LVU615
	.loc 1 451 10 is_stmt 0 view .LVU616
	ldr	r3, [r4, #8]
	.loc 1 451 20 view .LVU617
	orr	r3, r3, #8388608
	str	r3, [r4, #8]
	.loc 1 452 5 is_stmt 1 view .LVU618
	.loc 1 452 10 is_stmt 0 view .LVU619
	ldr	r3, [r4, #12]
	.loc 1 452 18 view .LVU620
	bic	r3, r3, #12582912
	str	r3, [r4, #12]
	.loc 1 454 3 is_stmt 1 view .LVU621
	ldr	r3, [r4, #20]
	bic	r3, r3, #2048
	str	r3, [r4, #20]
	.loc 1 454 13 view .LVU622
	.loc 1 455 3 view .LVU623
	ldr	r3, [r4, #20]
	orr	r3, r3, #4096
	str	r3, [r4, #20]
	.loc 1 455 15 view .LVU624
	.loc 1 457 3 view .LVU625
	.loc 1 457 11 is_stmt 0 view .LVU626
	movs	r7, #10
.LBB245:
.LBB246:
	.loc 1 490 12 view .LVU627
	movs	r3, #32
.LBE246:
.LBE245:
	.loc 1 457 11 view .LVU628
	strb	r7, [sp, #4]
	.loc 1 458 3 is_stmt 1 view .LVU629
.LVL187:
.LBB248:
.LBI245:
	.loc 1 483 6 view .LVU630
.LBB247:
	.loc 1 489 3 view .LVU631
	.loc 1 490 3 view .LVU632
	.loc 1 490 12 is_stmt 0 view .LVU633
	strb	r3, [sp, #3]
.LVL188:
	.loc 1 492 3 is_stmt 1 view .LVU634
	ldr	r3, [r4, #20]
	bic	r3, r3, #4096
	str	r3, [r4, #20]
	.loc 1 492 14 view .LVU635
	.loc 1 493 3 view .LVU636
	add	r0, sp, #3
	movs	r1, #1
	bl	txSPI2_nRF_carrier
.LVL189:
	.loc 1 494 3 view .LVU637
	movs	r1, #1
	add	r0, sp, #4
.LVL190:
	.loc 1 494 3 is_stmt 0 view .LVU638
	bl	txSPI2_nRF_carrier
.LVL191:
	.loc 1 495 3 is_stmt 1 view .LVU639
	ldr	r3, [r4, #20]
	orr	r3, r3, #4096
	str	r3, [r4, #20]
	.loc 1 495 15 view .LVU640
.LVL192:
	.loc 1 495 15 is_stmt 0 view .LVU641
.LBE247:
.LBE248:
	.loc 1 459 3 is_stmt 1 view .LVU642
	movw	r0, #1500
	bl	delay_us
.LVL193:
	.loc 1 461 3 view .LVU643
	ldr	r3, [r4, #20]
	bic	r3, r3, #2048
	str	r3, [r4, #20]
	.loc 1 461 13 view .LVU644
	.loc 1 463 3 view .LVU645
.LBB249:
.LBB250:
	.loc 1 490 12 is_stmt 0 view .LVU646
	mov	r8, #38
.LBE250:
.LBE249:
	.loc 1 463 11 view .LVU647
	movs	r3, #151
.LBB253:
.LBB251:
	.loc 1 490 12 view .LVU648
	strb	r8, [sp, #3]
.LBE251:
.LBE253:
	.loc 1 463 11 view .LVU649
	strb	r3, [sp, #4]
	.loc 1 464 3 is_stmt 1 view .LVU650
.LVL194:
.LBB254:
.LBI249:
	.loc 1 483 6 view .LVU651
.LBB252:
	.loc 1 489 3 view .LVU652
	.loc 1 490 3 view .LVU653
	.loc 1 492 3 view .LVU654
	ldr	r3, [r4, #20]
	bic	r3, r3, #4096
	str	r3, [r4, #20]
	.loc 1 492 14 view .LVU655
	.loc 1 493 3 view .LVU656
	add	r0, sp, #3
	movs	r1, #1
	bl	txSPI2_nRF_carrier
.LVL195:
	.loc 1 494 3 view .LVU657
	movs	r1, #1
	add	r0, sp, #4
.LVL196:
	.loc 1 494 3 is_stmt 0 view .LVU658
	bl	txSPI2_nRF_carrier
.LVL197:
	.loc 1 495 3 is_stmt 1 view .LVU659
	ldr	r3, [r4, #20]
	orr	r3, r3, #4096
	str	r3, [r4, #20]
	.loc 1 495 15 view .LVU660
.LVL198:
	.loc 1 495 15 is_stmt 0 view .LVU661
.LBE252:
.LBE254:
	.loc 1 465 3 is_stmt 1 view .LVU662
	mov	r0, r7
	bl	delay_us
.LVL199:
	.loc 1 472 3 view .LVU663
	ldr	r3, [r4, #20]
	bic	r3, r3, #2048
	str	r3, [r4, #20]
	.loc 1 472 13 view .LVU664
	.loc 1 473 3 view .LVU665
.LBB255:
.LBB256:
	.loc 1 490 12 is_stmt 0 view .LVU666
	strb	r8, [sp, #3]
.LBE256:
.LBE255:
	.loc 1 473 11 view .LVU667
	strb	r5, [sp, #4]
	.loc 1 474 3 is_stmt 1 view .LVU668
.LVL200:
.LBB259:
.LBI255:
	.loc 1 483 6 view .LVU669
.LBB257:
	.loc 1 489 3 view .LVU670
	.loc 1 490 3 view .LVU671
	.loc 1 492 3 view .LVU672
	ldr	r3, [r4, #20]
	bic	r3, r3, #4096
	str	r3, [r4, #20]
	.loc 1 492 14 view .LVU673
	.loc 1 493 3 view .LVU674
	add	r0, sp, #3
	movs	r1, #1
	bl	txSPI2_nRF_carrier
.LVL201:
	.loc 1 494 3 view .LVU675
	uxtb	r1, r5
	add	r0, sp, #4
.LVL202:
	.loc 1 494 3 is_stmt 0 view .LVU676
	bl	txSPI2_nRF_carrier
.LVL203:
	.loc 1 495 3 is_stmt 1 view .LVU677
	ldr	r3, [r4, #20]
	orr	r3, r3, #4096
.LBE257:
.LBE259:
	.loc 1 475 3 is_stmt 0 view .LVU678
	mov	r0, r7
.LBB260:
.LBB258:
	.loc 1 495 3 view .LVU679
	str	r3, [r4, #20]
	.loc 1 495 15 is_stmt 1 view .LVU680
.LVL204:
	.loc 1 495 15 is_stmt 0 view .LVU681
.LBE258:
.LBE260:
	.loc 1 475 3 is_stmt 1 view .LVU682
	bl	delay_us
.LVL205:
	.loc 1 477 3 view .LVU683
	ldr	r3, [r4, #20]
	orr	r3, r3, #2048
	str	r3, [r4, #20]
	.loc 1 477 14 view .LVU684
	.loc 1 478 3 view .LVU685
	mov	r0, r6
	bl	delay_ms
.LVL206:
	.loc 1 479 3 view .LVU686
	ldr	r3, [r4, #20]
	bic	r3, r3, #2048
	str	r3, [r4, #20]
	.loc 1 479 13 view .LVU687
	.loc 1 480 1 is_stmt 0 view .LVU688
	add	sp, sp, #8
	.cfi_def_cfa_offset 24
	@ sp needed
	pop	{r4, r5, r6, r7, r8, pc}
.LVL207:
.L80:
	.loc 1 480 1 view .LVU689
	.align	2
.L79:
	.word	1073873920
	.cfi_endproc
.LFE122:
	.size	txContCarrierNRF24L01, .-txContCarrierNRF24L01
	.align	1
	.p2align 2,,3
	.global	setRegNRF24L01
	.syntax unified
	.thumb
	.thumb_func
	.type	setRegNRF24L01, %function
setRegNRF24L01:
.LVL208:
.LFB123:
	.loc 1 484 1 is_stmt 1 view -0
	.cfi_startproc
	@ args = 0, pretend = 0, frame = 8
	@ frame_needed = 0, uses_anonymous_args = 0
	.loc 1 489 3 view .LVU691
	.loc 1 490 3 view .LVU692
	.loc 1 484 1 is_stmt 0 view .LVU693
	push	{r4, r5, r6, lr}
	.cfi_def_cfa_offset 16
	.cfi_offset 4, -16
	.cfi_offset 5, -12
	.cfi_offset 6, -8
	.cfi_offset 14, -4
	.loc 1 489 12 view .LVU694
	and	r0, r0, #31
.LVL209:
	.loc 1 484 1 view .LVU695
	sub	sp, sp, #8
	.cfi_def_cfa_offset 24
	.loc 1 492 3 view .LVU696
	ldr	r4, .L83
	.loc 1 490 12 view .LVU697
	orr	r0, r0, #32
	strb	r0, [sp, #7]
	.loc 1 492 3 is_stmt 1 view .LVU698
	ldr	r3, [r4, #20]
	bic	r3, r3, #4096
	.loc 1 484 1 is_stmt 0 view .LVU699
	mov	r6, r2
	.loc 1 492 3 view .LVU700
	str	r3, [r4, #20]
	.loc 1 492 14 is_stmt 1 view .LVU701
	.loc 1 493 3 view .LVU702
	.loc 1 484 1 is_stmt 0 view .LVU703
	mov	r5, r1
	.loc 1 493 3 view .LVU704
	add	r0, sp, #7
	movs	r1, #1
.LVL210:
	.loc 1 493 3 view .LVU705
	bl	txSPI2_nRF_carrier
.LVL211:
	.loc 1 494 3 is_stmt 1 view .LVU706
	mov	r1, r6
	mov	r0, r5
	bl	txSPI2_nRF_carrier
.LVL212:
	.loc 1 495 3 view .LVU707
	ldr	r3, [r4, #20]
	orr	r3, r3, #4096
	str	r3, [r4, #20]
	.loc 1 495 15 view .LVU708
	.loc 1 497 1 is_stmt 0 view .LVU709
	add	sp, sp, #8
	.cfi_def_cfa_offset 16
	@ sp needed
	pop	{r4, r5, r6, pc}
.LVL213:
.L84:
	.loc 1 497 1 view .LVU710
	.align	2
.L83:
	.word	1073873920
	.cfi_endproc
.LFE123:
	.size	setRegNRF24L01, .-setRegNRF24L01
	.align	1
	.p2align 2,,3
	.global	flushTxNRF24L01
	.syntax unified
	.thumb
	.thumb_func
	.type	flushTxNRF24L01, %function
flushTxNRF24L01:
.LFB124:
	.loc 1 502 1 is_stmt 1 view -0
	.cfi_startproc
	@ args = 0, pretend = 0, frame = 0
	@ frame_needed = 0, uses_anonymous_args = 0
	.loc 1 503 2 view .LVU712
	.loc 1 502 1 is_stmt 0 view .LVU713
	push	{r4, lr}
	.cfi_def_cfa_offset 8
	.cfi_offset 4, -8
	.cfi_offset 14, -4
	.loc 1 503 2 view .LVU714
	ldr	r4, .L87
	ldr	r3, [r4, #20]
	bic	r3, r3, #4096
	str	r3, [r4, #20]
	.loc 1 503 13 is_stmt 1 view .LVU715
	.loc 1 504 2 view .LVU716
	movs	r0, #225
	bl	txByteSPI2_nRF_carrier
.LVL214:
	.loc 1 505 2 view .LVU717
	ldr	r3, [r4, #20]
	orr	r3, r3, #4096
	str	r3, [r4, #20]
	.loc 1 505 14 view .LVU718
	.loc 1 506 1 is_stmt 0 view .LVU719
	pop	{r4, pc}
.L88:
	.align	2
.L87:
	.word	1073873920
	.cfi_endproc
.LFE124:
	.size	flushTxNRF24L01, .-flushTxNRF24L01
	.align	1
	.p2align 2,,3
	.global	setTxModeNRF24L01
	.syntax unified
	.thumb
	.thumb_func
	.type	setTxModeNRF24L01, %function
setTxModeNRF24L01:
.LFB125:
	.loc 1 512 1 is_stmt 1 view -0
	.cfi_startproc
	@ args = 0, pretend = 0, frame = 8
	@ frame_needed = 0, uses_anonymous_args = 0
	.loc 1 513 2 view .LVU721
	.loc 1 512 1 is_stmt 0 view .LVU722
	push	{r4, r5, lr}
	.cfi_def_cfa_offset 12
	.cfi_offset 4, -12
	.cfi_offset 5, -8
	.cfi_offset 14, -4
	.loc 1 513 11 view .LVU723
	ldr	r1, .L91
.LBB265:
.LBB266:
.LBB267:
.LBB268:
	.loc 1 492 3 view .LVU724
	ldr	r4, .L91+4
.LBE268:
.LBE267:
.LBE266:
.LBE265:
	.loc 1 512 1 view .LVU725
	sub	sp, sp, #12
	.cfi_def_cfa_offset 24
	.loc 1 513 11 view .LVU726
	movs	r5, #1
	movs	r2, #10
.LBB275:
.LBB273:
.LBB271:
.LBB269:
	.loc 1 490 12 view .LVU727
	movs	r3, #32
.LBE269:
.LBE271:
.LBE273:
.LBE275:
	.loc 1 513 11 view .LVU728
	strb	r5, [r1]
	.loc 1 514 2 is_stmt 1 view .LVU729
.LVL215:
	.loc 1 514 2 is_stmt 0 view .LVU730
	strb	r2, [sp, #6]
.LVL216:
.LBB276:
.LBI265:
	.loc 1 151 6 is_stmt 1 view .LVU731
.LBB274:
	.loc 1 153 3 view .LVU732
.LBB272:
.LBI267:
	.loc 1 483 6 view .LVU733
.LBB270:
	.loc 1 489 3 view .LVU734
	.loc 1 490 3 view .LVU735
	.loc 1 490 12 is_stmt 0 view .LVU736
	strb	r3, [sp, #7]
.LVL217:
	.loc 1 492 3 is_stmt 1 view .LVU737
	ldr	r3, [r4, #20]
	bic	r3, r3, #4096
	str	r3, [r4, #20]
	.loc 1 492 14 view .LVU738
	.loc 1 493 3 view .LVU739
	add	r0, sp, #7
	mov	r1, r5
	bl	txSPI2_nRF_carrier
.LVL218:
	.loc 1 494 3 view .LVU740
	mov	r1, r5
	add	r0, sp, #6
.LVL219:
	.loc 1 494 3 is_stmt 0 view .LVU741
	bl	txSPI2_nRF_carrier
.LVL220:
	.loc 1 495 3 is_stmt 1 view .LVU742
	ldr	r3, [r4, #20]
	orr	r3, r3, #4096
	str	r3, [r4, #20]
	.loc 1 495 15 view .LVU743
.LVL221:
	.loc 1 495 15 is_stmt 0 view .LVU744
.LBE270:
.LBE272:
.LBE274:
.LBE276:
	.loc 1 515 1 view .LVU745
	add	sp, sp, #12
	.cfi_def_cfa_offset 12
	@ sp needed
	pop	{r4, r5, pc}
.L92:
	.align	2
.L91:
	.word	.LANCHOR0
	.word	1073873920
	.cfi_endproc
.LFE125:
	.size	setTxModeNRF24L01, .-setTxModeNRF24L01
	.align	1
	.p2align 2,,3
	.global	setMaxSpeedNRF24L01
	.syntax unified
	.thumb
	.thumb_func
	.type	setMaxSpeedNRF24L01, %function
setMaxSpeedNRF24L01:
.LFB126:
	.loc 1 519 1 is_stmt 1 view -0
	.cfi_startproc
	@ args = 0, pretend = 0, frame = 8
	@ frame_needed = 0, uses_anonymous_args = 0
	.loc 1 520 5 view .LVU747
	.loc 1 523 5 view .LVU748
	.loc 1 519 1 is_stmt 0 view .LVU749
	push	{r4, lr}
	.cfi_def_cfa_offset 8
	.cfi_offset 4, -8
	.cfi_offset 14, -4
	sub	sp, sp, #8
	.cfi_def_cfa_offset 16
.LBB281:
.LBB282:
	.loc 1 197 3 view .LVU750
	ldr	r4, .L95
	movs	r3, #6
	strb	r3, [sp, #6]
.LVL222:
	.loc 1 197 3 view .LVU751
.LBE282:
.LBI281:
	.loc 1 190 9 is_stmt 1 view .LVU752
.LBB283:
	.loc 1 192 3 view .LVU753
	.loc 1 193 3 view .LVU754
	.loc 1 197 3 view .LVU755
	ldr	r3, [r4, #20]
.LVL223:
	.loc 1 197 3 is_stmt 0 view .LVU756
	bic	r3, r3, #4096
	str	r3, [r4, #20]
.LVL224:
	.loc 1 197 14 is_stmt 1 view .LVU757
	.loc 1 198 3 view .LVU758
	add	r0, sp, #6
	movs	r1, #1
	bl	txSPI2_nRF_carrier
.LVL225:
	.loc 1 199 3 view .LVU759
	add	r0, sp, #7
	movs	r1, #1
	bl	rxSPI2_nRF_carrier
.LVL226:
	.loc 1 200 3 view .LVU760
	ldr	r3, [r4, #20]
	orr	r3, r3, #4096
	str	r3, [r4, #20]
	.loc 1 200 15 view .LVU761
	.loc 1 201 3 view .LVU762
	.loc 1 201 10 is_stmt 0 view .LVU763
	ldrb	r3, [sp, #7]	@ zero_extendqisi2
.LVL227:
	.loc 1 201 10 view .LVU764
.LBE283:
.LBE281:
	.loc 1 526 5 is_stmt 1 view .LVU765
	.loc 1 528 5 view .LVU766
	.loc 1 526 14 is_stmt 0 view .LVU767
	bic	r3, r3, #38
.LBB284:
.LBB285:
	.loc 1 490 12 view .LVU768
	movs	r2, #38
.LBE285:
.LBE284:
	.loc 1 528 14 view .LVU769
	orr	r3, r3, #14
.LBB288:
.LBB286:
	.loc 1 490 12 view .LVU770
	strb	r2, [sp, #7]
.LBE286:
.LBE288:
	.loc 1 528 14 view .LVU771
	strb	r3, [sp, #6]
	.loc 1 529 5 is_stmt 1 view .LVU772
.LVL228:
.LBB289:
.LBI284:
	.loc 1 483 6 view .LVU773
.LBB287:
	.loc 1 489 3 view .LVU774
	.loc 1 490 3 view .LVU775
	.loc 1 492 3 view .LVU776
	ldr	r3, [r4, #20]
	bic	r3, r3, #4096
	str	r3, [r4, #20]
	.loc 1 492 14 view .LVU777
	.loc 1 493 3 view .LVU778
	add	r0, sp, #7
	movs	r1, #1
	bl	txSPI2_nRF_carrier
.LVL229:
	.loc 1 494 3 view .LVU779
	movs	r1, #1
	add	r0, sp, #6
.LVL230:
	.loc 1 494 3 is_stmt 0 view .LVU780
	bl	txSPI2_nRF_carrier
.LVL231:
	.loc 1 495 3 is_stmt 1 view .LVU781
	ldr	r3, [r4, #20]
	orr	r3, r3, #4096
	str	r3, [r4, #20]
	.loc 1 495 15 view .LVU782
.LVL232:
	.loc 1 495 15 is_stmt 0 view .LVU783
.LBE287:
.LBE289:
	.loc 1 530 1 view .LVU784
	add	sp, sp, #8
	.cfi_def_cfa_offset 8
	@ sp needed
	pop	{r4, pc}
.L96:
	.align	2
.L95:
	.word	1073873920
	.cfi_endproc
.LFE126:
	.size	setMaxSpeedNRF24L01, .-setMaxSpeedNRF24L01
	.global	nrf_mode
	.global	g_node_address
	.global	c_nrf_slave_addr
	.global	c_nrf_master_addr
	.global	g_nrf24l01_node_type
	.section	.rodata
	.align	2
	.set	.LANCHOR1,. + 0
	.type	c_nrf_slave_addr, %object
	.size	c_nrf_slave_addr, 6
c_nrf_slave_addr:
	.ascii	"SDR00\000"
	.space	2
	.type	c_nrf_master_addr, %object
	.size	c_nrf_master_addr, 6
c_nrf_master_addr:
	.ascii	"MDR01\000"
	.bss
	.align	2
	.set	.LANCHOR0,. + 0
	.type	nrf_mode, %object
	.size	nrf_mode, 1
nrf_mode:
	.space	1
	.type	g_nrf24l01_node_type, %object
	.size	g_nrf24l01_node_type, 1
g_nrf24l01_node_type:
	.space	1
	.space	2
	.type	g_node_address, %object
	.size	g_node_address, 4
g_node_address:
	.space	4
	.text
.Letext0:
	.file 2 "/usr/lib/gcc/arm-none-eabi/12.2.1/include/stdint.h"
	.file 3 "nRF24L01/nRF24L01.h"
	.file 4 "/home/eldar/workspace/msut/STM32F407/Libraries/CMSIS/ST/STM32F4xx/Include/stm32f4xx.h"
	.file 5 "nRF24L01/../usart/usart.h"
	.file 6 "nRF24L01/../delay/delay.h"
	.file 7 "nRF24L01/../spi/spi.h"