	.cpu cortex-m4
	.arch armv7e-m
	.fpu fpv4-sp-d16
	.eabi_attribute 27, 1
	.eabi_attribute 28, 1
	.eabi_attribute 20, 1
	.eabi_attribute 21, 1
	.eabi_attribute 23, 3
	.eabi_attribute 24, 1
	.eabi_attribute 25, 1
	.eabi_attribute 26, 1
	.eabi_attribute 30, 2
	.eabi_attribute 34, 1
	.eabi_attribute 18, 4
	.file	"main.c"
	.text
.Ltext0:
	.cfi_sections	.debug_frame
	.file 1 "main.c"
	.align	1
	.p2align 2,,3
	.global	autic_double_buffer
	.syntax unified
	.thumb
	.thumb_func
	.type	autic_double_buffer, %function
autic_double_buffer:
.LFB111:
	.loc 1 161 1 view -0
	.cfi_startproc
	@ Volatile: function does not return.
	@ args = 0, pretend = 0, frame = 32
	@ frame_needed = 0, uses_anonymous_args = 0
	push	{r7, fp, lr}
	.cfi_def_cfa_offset 12
	.cfi_offset 7, -12
	.cfi_offset 11, -8
	.cfi_offset 14, -4
	ldr	r6, .L26
	ldr	r5, .L26+4
	ldr	r9, .L26+12
	.loc 1 163 22 is_stmt 0 view .LVU1
	ldr	r8, .L26+16
.LBB6:
.LBB7:
	.loc 1 199 3 view .LVU2
	ldr	r7, .L26+8
.LBE7:
.LBE6:
	.loc 1 161 1 view .LVU3
	sub	sp, sp, #36
	.cfi_def_cfa_offset 48
.LBB11:
.LBB8:
	.loc 1 197 13 view .LVU4
	movw	r10, #21930
.L2:
.LBE8:
.LBE11:
	.loc 1 162 3 is_stmt 1 view .LVU5
	.loc 1 163 5 view .LVU6
	.loc 1 163 22 is_stmt 0 view .LVU7
	ldr	r4, [r8, #40]
	.loc 1 165 25 view .LVU8
	ldrb	r3, [r6]	@ zero_extendqisi2
	.loc 1 163 8 view .LVU9
	ands	r4, r4, #524288
	beq	.L3
.L23:
	.loc 1 165 7 is_stmt 1 view .LVU10
	.loc 1 165 10 is_stmt 0 view .LVU11
	and	r4, r3, #255
	cmp	r3, #0
	bne	.L2
	.loc 1 169 9 is_stmt 1 view .LVU12
.LVL0:
.LBB12:
.LBI12:
	.loc 1 191 6 view .LVU13
.LBB13:
	.loc 1 193 3 view .LVU14
	.loc 1 194 3 view .LVU15
	.loc 1 197 3 view .LVU16
	.loc 1 198 3 view .LVU17
	.loc 1 199 3 is_stmt 0 view .LVU18
	mov	r1, sp
	mov	r0, r7
	.loc 1 197 13 view .LVU19
	strh	r10, [sp]	@ movhi
	.loc 1 199 3 is_stmt 1 view .LVU20
	ldr	fp, .L26+20
	bl	txDataNRF24L01
.LVL1:
	.loc 1 201 3 view .LVU21
	.loc 1 201 17 view .LVU22
	.loc 1 194 15 is_stmt 0 view .LVU23
	mov	r3, r4
	b	.L6
.LVL2:
.L5:
	.loc 1 201 28 is_stmt 1 view .LVU24
	.loc 1 201 17 view .LVU25
	cmp	r5, fp
	beq	.L21
.LVL3:
.L6:
	.loc 1 203 5 view .LVU26
	.loc 1 203 41 is_stmt 0 view .LVU27
	ldrh	r4, [fp]
.LVL4:
	.loc 1 204 42 view .LVU28
	ldrh	r1, [fp]
	.loc 1 203 17 view .LVU29
	add	r0, r3, #32
	.loc 1 204 17 view .LVU30
	add	r2, r3, #33
	.loc 1 203 17 view .LVU31
	add	r0, sp, r0
	.loc 1 204 17 view .LVU32
	add	r2, sp, r2
	.loc 1 204 13 view .LVU33
	adds	r3, r3, #2
.LVL5:
	.loc 1 204 19 view .LVU34
	ubfx	r1, r1, #8, #8
	.loc 1 207 8 view .LVU35
	cmp	r3, #32
	.loc 1 203 19 view .LVU36
	strb	r4, [r0, #-32]
	.loc 1 204 5 is_stmt 1 view .LVU37
.LVL6:
	.loc 1 201 17 is_stmt 0 view .LVU38
	add	fp, fp, #2
	.loc 1 204 19 view .LVU39
	strb	r1, [r2, #-32]
	.loc 1 207 5 is_stmt 1 view .LVU40
	.loc 1 207 8 is_stmt 0 view .LVU41
	bne	.L5
	.loc 1 208 7 is_stmt 1 view .LVU42
	mov	r1, sp
	mov	r0, r7
	bl	txDataNRF24L01
.LVL7:
	.loc 1 209 7 view .LVU43
	.loc 1 201 17 is_stmt 0 view .LVU44
	cmp	r5, fp
	.loc 1 209 9 view .LVU45
	mov	r3, #0
.LVL8:
	.loc 1 201 28 is_stmt 1 view .LVU46
	.loc 1 201 17 view .LVU47
	bne	.L6
.L21:
	.loc 1 214 3 view .LVU48
	.loc 1 214 6 is_stmt 0 view .LVU49
	cbnz	r3, .L22
.LVL9:
.L7:
	.loc 1 214 6 view .LVU50
.LBE13:
.LBE12:
	.loc 1 171 9 is_stmt 1 view .LVU51
	.loc 1 171 23 is_stmt 0 view .LVU52
	movs	r3, #1
	strb	r3, [r6]
	.loc 1 162 3 is_stmt 1 view .LVU53
	.loc 1 163 5 view .LVU54
	.loc 1 163 22 is_stmt 0 view .LVU55
	ldr	r4, [r8, #40]
	.loc 1 165 25 view .LVU56
	ldrb	r3, [r6]	@ zero_extendqisi2
	.loc 1 163 8 view .LVU57
	ands	r4, r4, #524288
	bne	.L23
.L3:
	.loc 1 175 7 is_stmt 1 view .LVU58
	.loc 1 175 10 is_stmt 0 view .LVU59
	cmp	r3, #1
	bne	.L2
	.loc 1 179 9 is_stmt 1 view .LVU60
.LVL10:
.LBB15:
.LBI6:
	.loc 1 191 6 view .LVU61
.LBB9:
	.loc 1 193 3 view .LVU62
	.loc 1 194 3 view .LVU63
	.loc 1 197 3 view .LVU64
	.loc 1 198 3 view .LVU65
	.loc 1 199 3 is_stmt 0 view .LVU66
	mov	r1, sp
	mov	r0, r7
	.loc 1 197 13 view .LVU67
	strh	r10, [sp]	@ movhi
	.loc 1 199 3 is_stmt 1 view .LVU68
	ldr	fp, .L26+24
	bl	txDataNRF24L01
.LVL11:
	.loc 1 201 3 view .LVU69
	.loc 1 201 17 view .LVU70
	.loc 1 194 15 is_stmt 0 view .LVU71
	mov	r3, r4
	b	.L9
.LVL12:
.L8:
	.loc 1 201 28 is_stmt 1 view .LVU72
	.loc 1 201 17 view .LVU73
	cmp	fp, r9
	beq	.L24
.LVL13:
.L9:
	.loc 1 203 5 view .LVU74
	.loc 1 203 41 is_stmt 0 view .LVU75
	ldrh	r4, [fp]
.LVL14:
	.loc 1 204 42 view .LVU76
	ldrh	r1, [fp]
	.loc 1 203 17 view .LVU77
	add	r0, r3, #32
	.loc 1 204 17 view .LVU78
	add	r2, r3, #33
	.loc 1 203 17 view .LVU79
	add	r0, sp, r0
	.loc 1 204 17 view .LVU80
	add	r2, sp, r2
	.loc 1 204 13 view .LVU81
	adds	r3, r3, #2
.LVL15:
	.loc 1 204 19 view .LVU82
	ubfx	r1, r1, #8, #8
	.loc 1 207 8 view .LVU83
	cmp	r3, #32
	.loc 1 203 19 view .LVU84
	strb	r4, [r0, #-32]
	.loc 1 204 5 is_stmt 1 view .LVU85
.LVL16:
	.loc 1 201 17 is_stmt 0 view .LVU86
	add	fp, fp, #2
	.loc 1 204 19 view .LVU87
	strb	r1, [r2, #-32]
	.loc 1 207 5 is_stmt 1 view .LVU88
	.loc 1 207 8 is_stmt 0 view .LVU89
	bne	.L8
	.loc 1 208 7 is_stmt 1 view .LVU90
	mov	r1, sp
	mov	r0, r7
	bl	txDataNRF24L01
.LVL17:
	.loc 1 209 7 view .LVU91
	.loc 1 201 17 is_stmt 0 view .LVU92
	cmp	fp, r9
	.loc 1 209 9 view .LVU93
	mov	r3, #0
.LVL18:
	.loc 1 201 28 is_stmt 1 view .LVU94
	.loc 1 201 17 view .LVU95
	bne	.L9
.L24:
	.loc 1 214 3 view .LVU96
	.loc 1 214 6 is_stmt 0 view .LVU97
	cbnz	r3, .L25
.LVL19:
.L10:
	.loc 1 214 6 view .LVU98
.LBE9:
.LBE15:
	.loc 1 182 9 is_stmt 1 view .LVU99
	.loc 1 182 23 is_stmt 0 view .LVU100
	movs	r3, #0
	strb	r3, [r6]
	b	.L2
.LVL20:
.L22:
.LBB16:
.LBB14:
	.loc 1 215 5 is_stmt 1 view .LVU101
	mov	r1, sp
	mov	r0, r7
	bl	txDataNRF24L01
.LVL21:
	.loc 1 215 5 is_stmt 0 view .LVU102
	b	.L7
.LVL22:
.L25:
	.loc 1 215 5 view .LVU103
.LBE14:
.LBE16:
.LBB17:
.LBB10:
	.loc 1 215 5 is_stmt 1 view .LVU104
	mov	r1, sp
	mov	r0, r7
	bl	txDataNRF24L01
.LVL23:
	.loc 1 215 5 is_stmt 0 view .LVU105
	b	.L10
.L27:
	.align	2
.L26:
	.word	.LANCHOR0
	.word	frame_buffer0+38400
	.word	c_nrf_slave_addr
	.word	frame_buffer1+38400
	.word	1073898496
	.word	frame_buffer0
	.word	frame_buffer1
.LBE10:
.LBE17:
	.cfi_endproc
.LFE111:
	.size	autic_double_buffer, .-autic_double_buffer
	.align	1
	.p2align 2,,3
	.global	sendFrameNRF
	.syntax unified
	.thumb
	.thumb_func
	.type	sendFrameNRF, %function
sendFrameNRF:
.LVL24:
.LFB112:
	.loc 1 192 1 is_stmt 1 view -0
	.cfi_startproc
	@ args = 0, pretend = 0, frame = 32
	@ frame_needed = 0, uses_anonymous_args = 0
	.loc 1 193 3 view .LVU107
	.loc 1 194 3 view .LVU108
	.loc 1 197 3 view .LVU109
	.loc 1 198 3 view .LVU110
	.loc 1 192 1 is_stmt 0 view .LVU111
	push	{r4, r5, r6, r7, lr}
	.cfi_def_cfa_offset 20
	.cfi_offset 4, -20
	.cfi_offset 5, -16
	.cfi_offset 6, -12
	.cfi_offset 7, -8
	.cfi_offset 14, -4
	sub	sp, sp, #36
	.cfi_def_cfa_offset 56
	.loc 1 192 1 view .LVU112
	mov	r7, r1
	mov	r4, r0
	.loc 1 197 13 view .LVU113
	movw	r3, #21930
	.loc 1 199 3 view .LVU114
	ldr	r0, .L44
.LVL25:
	.loc 1 197 13 view .LVU115
	strh	r3, [sp]	@ movhi
	.loc 1 199 3 is_stmt 1 view .LVU116
	mov	r1, sp
.LVL26:
	.loc 1 199 3 is_stmt 0 view .LVU117
	bl	txDataNRF24L01
.LVL27:
	.loc 1 201 3 is_stmt 1 view .LVU118
	.loc 1 201 17 view .LVU119
	cbz	r7, .L28
	.loc 1 194 15 is_stmt 0 view .LVU120
	movs	r3, #0
	.loc 1 208 7 view .LVU121
	ldr	r6, .L44
	.loc 1 201 10 view .LVU122
	mov	r5, r3
	b	.L31
.LVL28:
.L30:
	.loc 1 201 28 is_stmt 1 discriminator 2 view .LVU123
	.loc 1 201 17 discriminator 2 view .LVU124
	cmp	r7, r5
	beq	.L42
.LVL29:
.L31:
	.loc 1 203 5 view .LVU125
	.loc 1 203 41 is_stmt 0 view .LVU126
	ldrh	r1, [r4]
.LVL30:
	.loc 1 204 42 view .LVU127
	ldrh	r0, [r4]
	.loc 1 203 17 view .LVU128
	add	ip, r3, #32
	.loc 1 204 17 view .LVU129
	add	r2, r3, #33
	.loc 1 203 17 view .LVU130
	add	ip, sp, ip
	.loc 1 204 17 view .LVU131
	add	r2, sp, r2
	.loc 1 204 13 view .LVU132
	adds	r3, r3, #2
	.loc 1 204 19 view .LVU133
	ubfx	r0, r0, #8, #8
	.loc 1 207 8 view .LVU134
	cmp	r3, #32
	.loc 1 203 19 view .LVU135
	strb	r1, [ip, #-32]
	.loc 1 204 5 is_stmt 1 view .LVU136
.LVL31:
	.loc 1 201 28 is_stmt 0 view .LVU137
	add	r5, r5, #1
.LVL32:
	.loc 1 204 19 view .LVU138
	strb	r0, [r2, #-32]
	.loc 1 207 5 is_stmt 1 view .LVU139
	.loc 1 201 17 is_stmt 0 view .LVU140
	add	r4, r4, #2
	.loc 1 207 8 view .LVU141
	bne	.L30
	.loc 1 208 7 is_stmt 1 view .LVU142
	mov	r1, sp
	mov	r0, r6
	bl	txDataNRF24L01
.LVL33:
	.loc 1 209 7 view .LVU143
	.loc 1 201 17 is_stmt 0 view .LVU144
	cmp	r7, r5
	.loc 1 209 9 view .LVU145
	mov	r3, #0
.LVL34:
	.loc 1 201 28 is_stmt 1 view .LVU146
	.loc 1 201 17 view .LVU147
	bne	.L31
.L42:
	.loc 1 214 3 view .LVU148
	.loc 1 214 6 is_stmt 0 view .LVU149
	cbnz	r3, .L43
.LVL35:
.L28:
	.loc 1 217 1 view .LVU150
	add	sp, sp, #36
	.cfi_remember_state
	.cfi_def_cfa_offset 20
	@ sp needed
	pop	{r4, r5, r6, r7, pc}
.LVL36:
.L43:
	.cfi_restore_state
	.loc 1 215 5 is_stmt 1 view .LVU151
	mov	r1, sp
	ldr	r0, .L44
	bl	txDataNRF24L01
.LVL37:
	.loc 1 217 1 is_stmt 0 view .LVU152
	add	sp, sp, #36
	.cfi_def_cfa_offset 20
	@ sp needed
	pop	{r4, r5, r6, r7, pc}
.LVL38:
.L45:
	.loc 1 217 1 view .LVU153
	.align	2
.L44:
	.word	c_nrf_slave_addr
	.cfi_endproc
.LFE112:
	.size	sendFrameNRF, .-sendFrameNRF
	.align	1
	.p2align 2,,3
	.global	startMasterNodeSYS
	.syntax unified
	.thumb
	.thumb_func
	.type	startMasterNodeSYS, %function
startMasterNodeSYS:
.LFB115:
	.loc 1 286 26 is_stmt 1 view -0
	.cfi_startproc
	@ args = 0, pretend = 0, frame = 0
	@ frame_needed = 0, uses_anonymous_args = 0
	.loc 1 287 3 view .LVU155
.LVL39:
	.loc 1 289 5 view .LVU156
	.loc 1 286 26 is_stmt 0 view .LVU157
	push	{r4, lr}
	.cfi_def_cfa_offset 8
	.cfi_offset 4, -8
	.cfi_offset 14, -4
	.loc 1 289 5 view .LVU158
	ldr	r4, .L56
	adds	r0, r4, #4
	bl	getDataLIS302DL
.LVL40:
	.loc 1 290 5 is_stmt 1 view .LVU159
	adds	r1, r4, #4
	ldr	r0, .L56+4
	bl	txDataNRF24L01_SPI3
.LVL41:
	.loc 1 294 5 view .LVU160
	.loc 1 294 29 is_stmt 0 view .LVU161
	ldrsb	r2, [r4, #4]
	.loc 1 296 29 view .LVU162
	ldrsb	r3, [r4, #5]
	.loc 1 294 16 view .LVU163
	ldr	r1, .L56+8
	.loc 1 294 62 view .LVU164
	adds	r0, r2, #5
	.loc 1 294 57 view .LVU165
	itte	lt
	sublt	r0, r2, r2, lsl #3
	lsllt	r0, r0, #1
	.loc 1 294 62 view .LVU166
	movge	r0, #0
	.loc 1 296 60 view .LVU167
	cmp	r3, #5
	.loc 1 294 16 view .LVU168
	str	r0, [r1, #52]
	.loc 1 296 5 is_stmt 1 view .LVU169
	.loc 1 296 60 is_stmt 0 view .LVU170
	ble	.L48
	.loc 1 296 55 discriminator 1 view .LVU171
	rsb	r3, r3, r3, lsl #3
	lsls	r3, r3, #1
	.loc 1 296 16 discriminator 1 view .LVU172
	str	r3, [r1, #56]
	.loc 1 299 5 is_stmt 1 discriminator 1 view .LVU173
.L49:
	.loc 1 299 62 is_stmt 0 view .LVU174
	movs	r3, #0
.L51:
	.loc 1 299 16 discriminator 4 view .LVU175
	ldr	r1, .L56+8
	.loc 1 302 60 discriminator 4 view .LVU176
	cmp	r2, #5
	.loc 1 299 16 discriminator 4 view .LVU177
	str	r3, [r1, #64]
	.loc 1 302 5 is_stmt 1 discriminator 4 view .LVU178
	.loc 1 302 55 is_stmt 0 discriminator 4 view .LVU179
	it	gt
	rsbgt	r2, r2, r2, lsl #3
	.loc 1 302 16 discriminator 4 view .LVU180
	ldr	r3, .L56+8
	.loc 1 302 55 discriminator 4 view .LVU181
	ite	gt
	lslgt	r2, r2, #1
	.loc 1 302 60 discriminator 4 view .LVU182
	movle	r2, #0
	.loc 1 302 16 discriminator 4 view .LVU183
	str	r2, [r3, #60]
	.loc 1 306 1 discriminator 4 view .LVU184
	pop	{r4, pc}
.L48:
	.loc 1 296 16 discriminator 4 view .LVU185
	movs	r0, #0
	str	r0, [r1, #56]
	.loc 1 299 5 is_stmt 1 discriminator 4 view .LVU186
	.loc 1 299 62 is_stmt 0 discriminator 4 view .LVU187
	adds	r1, r3, #5
	bge	.L49
	.loc 1 299 57 discriminator 1 view .LVU188
	sub	r3, r3, r3, lsl #3
	lsls	r3, r3, #1
	b	.L51
.L57:
	.align	2
.L56:
	.word	.LANCHOR0
	.word	c_nrf_slave_addr_spi3
	.word	1073743872
	.cfi_endproc
.LFE115:
	.size	startMasterNodeSYS, .-startMasterNodeSYS
	.align	1
	.p2align 2,,3
	.global	receiveFrameNRF
	.syntax unified
	.thumb
	.thumb_func
	.type	receiveFrameNRF, %function
receiveFrameNRF:
.LVL42:
.LFB114:
	.loc 1 231 1 is_stmt 1 view -0
	.cfi_startproc
	@ args = 0, pretend = 0, frame = 32
	@ frame_needed = 0, uses_anonymous_args = 0
	.loc 1 232 5 view .LVU190
	.loc 1 233 5 view .LVU191
	.loc 1 234 5 view .LVU192
	.loc 1 231 1 is_stmt 0 view .LVU193
	push	{r4, r5, r6, lr}
	.cfi_def_cfa_offset 16
	.cfi_offset 4, -16
	.cfi_offset 5, -12
	.cfi_offset 6, -8
	.cfi_offset 14, -4
	mov	r5, r0
	sub	sp, sp, #32
	.cfi_def_cfa_offset 48
	.loc 1 234 14 view .LVU194
	lsls	r6, r1, #1
.LVL43:
	.loc 1 240 3 is_stmt 1 view .LVU195
	.loc 1 233 14 is_stmt 0 view .LVU196
	movs	r4, #0
.LVL44:
.L60:
	.loc 1 242 5 is_stmt 1 view .LVU197
	.loc 1 244 9 view .LVU198
	.loc 1 244 13 is_stmt 0 view .LVU199
	bl	dataReadyNRF24L01
.LVL45:
	.loc 1 244 12 view .LVU200
	cmp	r0, #1
	bne	.L60
	.loc 1 245 13 is_stmt 1 view .LVU201
	mov	r0, sp
	bl	rxDataNRF24L01
.LVL46:
	.loc 1 248 13 view .LVU202
	.loc 1 248 16 is_stmt 0 view .LVU203
	ldrb	r3, [sp]	@ zero_extendqisi2
	cmp	r3, #170
	beq	.L61
.L64:
.LVL47:
.LBB18:
	.loc 1 254 36 is_stmt 1 view .LVU204
	cmp	r6, r4
	bls	.L69
	mov	r3, sp
	add	r0, r4, #32
	b	.L68
.LVL48:
.L76:
.LBB19:
	.loc 1 263 31 is_stmt 0 view .LVU205
	adds	r4, r4, #1
.LVL49:
	.loc 1 258 49 view .LVU206
	ldrb	r2, [r3]	@ zero_extendqisi2
	strh	r2, [r5, r1]	@ movhi
	.loc 1 263 17 is_stmt 1 view .LVU207
.LVL50:
	.loc 1 263 17 is_stmt 0 view .LVU208
.LBE19:
	.loc 1 254 70 is_stmt 1 view .LVU209
	.loc 1 254 36 view .LVU210
	cmp	r4, r0
	add	r3, r3, #1
	beq	.L67
.LVL51:
.L77:
	.loc 1 254 36 is_stmt 0 discriminator 3 view .LVU211
	cmp	r6, r4
	beq	.L69
.LVL52:
.L68:
.LBB20:
	.loc 1 255 17 is_stmt 1 view .LVU212
	.loc 1 256 17 view .LVU213
	.loc 1 258 21 view .LVU214
	.loc 1 261 21 view .LVU215
	.loc 1 261 33 is_stmt 0 view .LVU216
	bic	r2, r4, #1
	.loc 1 256 20 view .LVU217
	tst	r4, #1
	.loc 1 258 33 view .LVU218
	mov	r1, r2
	.loc 1 256 20 view .LVU219
	beq	.L76
	.loc 1 261 45 view .LVU220
	ldrb	ip, [r3]	@ zero_extendqisi2
	.loc 1 261 41 view .LVU221
	ldrh	r1, [r5, r2]
	.loc 1 263 31 view .LVU222
	adds	r4, r4, #1
.LVL53:
	.loc 1 261 41 view .LVU223
	orr	r1, r1, ip, lsl #8
.LBE20:
	.loc 1 254 36 view .LVU224
	cmp	r4, r0
.LBB21:
	.loc 1 261 41 view .LVU225
	strh	r1, [r5, r2]	@ movhi
	.loc 1 263 17 is_stmt 1 view .LVU226
.LVL54:
	.loc 1 263 17 is_stmt 0 view .LVU227
.LBE21:
	.loc 1 254 70 is_stmt 1 view .LVU228
	.loc 1 254 36 view .LVU229
	add	r3, r3, #1
	bne	.L77
.LVL55:
.L67:
	.loc 1 254 36 is_stmt 0 view .LVU230
.LBE18:
	.loc 1 267 13 is_stmt 1 view .LVU231
	.loc 1 267 16 is_stmt 0 view .LVU232
	cmp	r6, r4
	bhi	.L60
.LVL56:
.L69:
	.loc 1 268 17 is_stmt 1 view .LVU233
	mov	r1, #19200
	mov	r0, r5
	bl	send_frame_buffer
.LVL57:
	.loc 1 269 17 view .LVU234
	bl	startMasterNodeSYS
.LVL58:
	.loc 1 271 17 view .LVU235
	.loc 1 281 1 is_stmt 0 view .LVU236
	add	sp, sp, #32
	.cfi_remember_state
	.cfi_def_cfa_offset 16
	@ sp needed
	pop	{r4, r5, r6, pc}
.LVL59:
.L61:
	.cfi_restore_state
	.loc 1 248 44 discriminator 1 view .LVU237
	ldrb	r3, [sp, #1]	@ zero_extendqisi2
	cmp	r3, #85
	bne	.L64
	.loc 1 249 32 view .LVU238
	movs	r4, #0
	b	.L60
	.cfi_endproc
.LFE114:
	.size	receiveFrameNRF, .-receiveFrameNRF
	.align	1
	.p2align 2,,3
	.global	kontroler_double_buffer
	.syntax unified
	.thumb
	.thumb_func
	.type	kontroler_double_buffer, %function
kontroler_double_buffer:
.LFB113:
	.loc 1 222 1 is_stmt 1 view -0
	.cfi_startproc
	@ Volatile: function does not return.
	@ args = 0, pretend = 0, frame = 0
	@ frame_needed = 0, uses_anonymous_args = 0
	push	{r3, lr}
	.cfi_def_cfa_offset 8
	.cfi_offset 3, -8
	.cfi_offset 14, -4
	.loc 1 224 5 is_stmt 0 view .LVU240
	ldr	r4, .L81
.L79:
	.loc 1 223 3 is_stmt 1 discriminator 1 view .LVU241
	.loc 1 224 5 discriminator 1 view .LVU242
	mov	r1, #19200
	mov	r0, r4
	bl	receiveFrameNRF
.LVL60:
	.loc 1 223 9 discriminator 1 view .LVU243
	b	.L79
.L82:
	.align	2
.L81:
	.word	frame_buffer
	.cfi_endproc
.LFE113:
	.size	kontroler_double_buffer, .-kontroler_double_buffer
	.section	.rodata.str1.4,"aMS",%progbits,1
	.align	2
.LC0:
	.ascii	"-> |[%d],[%d],[%d]|\012\000"
	.text
	.align	1
	.p2align 2,,3
	.global	startSlaveNodeSYS
	.syntax unified
	.thumb
	.thumb_func
	.type	startSlaveNodeSYS, %function
startSlaveNodeSYS:
.LFB116:
	.loc 1 309 25 view -0
	.cfi_startproc
	@ args = 0, pretend = 0, frame = 8
	@ frame_needed = 0, uses_anonymous_args = 0
	push	{r4, r5, r6, lr}
	.cfi_def_cfa_offset 16
	.cfi_offset 4, -16
	.cfi_offset 5, -12
	.cfi_offset 6, -8
	.cfi_offset 14, -4
	.loc 1 317 7 is_stmt 0 view .LVU245
	ldr	r5, .L96
	.loc 1 320 18 view .LVU246
	ldr	r4, .L96+4
	.loc 1 309 25 view .LVU247
	sub	sp, sp, #8
	.cfi_def_cfa_offset 24
	.loc 1 320 60 view .LVU248
	movs	r6, #0
.L84:
	.loc 1 310 3 is_stmt 1 view .LVU249
	.loc 1 311 3 view .LVU250
	.loc 1 312 3 view .LVU251
	.loc 1 314 5 view .LVU252
	.loc 1 314 21 is_stmt 0 view .LVU253
	bl	dataReadyNRF24L01_SPI3
.LVL61:
	.loc 1 315 5 is_stmt 1 view .LVU254
	.loc 1 315 8 is_stmt 0 view .LVU255
	cmp	r0, #1
	bne	.L84
	.loc 1 316 7 is_stmt 1 view .LVU256
	add	r0, sp, #4
.LVL62:
	.loc 1 316 7 is_stmt 0 view .LVU257
	bl	rxDataNRF24L01_SPI3
.LVL63:
	.loc 1 317 7 is_stmt 1 view .LVU258
	ldrsb	r3, [sp, #6]
	ldrsb	r2, [sp, #5]
	ldrsb	r1, [sp, #4]
	mov	r0, r5
	bl	printUSART2
.LVL64:
	.loc 1 320 7 view .LVU259
	.loc 1 320 29 is_stmt 0 view .LVU260
	ldrsb	r2, [sp, #4]
	.loc 1 320 60 view .LVU261
	adds	r0, r2, #5
	.loc 1 320 55 view .LVU262
	itte	lt
	sublt	r3, r2, r2, lsl #3
	lsllt	r3, r3, #1
	.loc 1 320 60 view .LVU263
	movge	r3, #0
	.loc 1 320 18 view .LVU264
	str	r3, [r4, #52]
	.loc 1 322 7 is_stmt 1 view .LVU265
	.loc 1 322 29 is_stmt 0 view .LVU266
	ldrsb	r3, [sp, #5]
	.loc 1 322 58 view .LVU267
	cmp	r3, #5
	ble	.L86
	.loc 1 322 53 discriminator 1 view .LVU268
	rsb	r3, r3, r3, lsl #3
	lsls	r3, r3, #1
	.loc 1 322 18 discriminator 1 view .LVU269
	str	r3, [r4, #56]
	.loc 1 325 7 is_stmt 1 discriminator 1 view .LVU270
.L87:
	.loc 1 325 60 is_stmt 0 view .LVU271
	movs	r3, #0
.L89:
	.loc 1 328 58 discriminator 4 view .LVU272
	cmp	r2, #5
	.loc 1 328 53 discriminator 4 view .LVU273
	itte	gt
	rsbgt	r2, r2, r2, lsl #3
	lslgt	r2, r2, #1
	.loc 1 328 58 discriminator 4 view .LVU274
	movle	r2, #0
	.loc 1 325 18 discriminator 4 view .LVU275
	str	r3, [r4, #64]
	.loc 1 328 7 is_stmt 1 discriminator 4 view .LVU276
	.loc 1 328 18 is_stmt 0 discriminator 4 view .LVU277
	str	r2, [r4, #60]
	b	.L84
.L86:
	.loc 1 325 60 discriminator 4 view .LVU278
	adds	r1, r3, #5
	.loc 1 322 18 discriminator 4 view .LVU279
	str	r6, [r4, #56]
	.loc 1 325 7 is_stmt 1 discriminator 4 view .LVU280
	.loc 1 325 60 is_stmt 0 discriminator 4 view .LVU281
	bge	.L87
	.loc 1 325 55 discriminator 1 view .LVU282
	sub	r3, r3, r3, lsl #3
	lsls	r3, r3, #1
	b	.L89
.L97:
	.align	2
.L96:
	.word	.LC0
	.word	1073743872
	.cfi_endproc
.LFE116:
	.size	startSlaveNodeSYS, .-startSlaveNodeSYS
	.align	1
	.p2align 2,,3
	.global	DMA2_Stream1_IRQHandler
	.syntax unified
	.thumb
	.thumb_func
	.type	DMA2_Stream1_IRQHandler, %function
DMA2_Stream1_IRQHandler:
.LFB117:
	.loc 1 342 1 is_stmt 1 view -0
	.cfi_startproc
	@ args = 0, pretend = 0, frame = 0
	@ frame_needed = 0, uses_anonymous_args = 0
	@ link register save eliminated.
	.loc 1 344 5 view .LVU284
	.loc 1 344 12 is_stmt 0 view .LVU285
	ldr	r3, .L109
	ldr	r2, [r3]
	.loc 1 344 7 view .LVU286
	lsls	r1, r2, #21
	.loc 1 345 9 is_stmt 1 view .LVU287
	.loc 1 350 5 view .LVU288
	.loc 1 345 21 is_stmt 0 view .LVU289
	itt	mi
	movmi	r2, #1024
	strmi	r2, [r3, #8]
	.loc 1 350 12 view .LVU290
	ldr	r3, .L109
	ldr	r2, [r3]
	.loc 1 350 7 view .LVU291
	lsls	r2, r2, #20
	bpl	.L98
	.loc 1 351 9 is_stmt 1 view .LVU292
	.loc 1 351 21 is_stmt 0 view .LVU293
	mov	r2, #2048
	str	r2, [r3, #8]
	.loc 1 353 9 is_stmt 1 view .LVU294
	.loc 1 353 26 is_stmt 0 view .LVU295
	ldr	r0, [r3, #40]
	.loc 1 355 27 view .LVU296
	ldr	r1, .L109+4
	ldr	r2, .L109+8
	ldr	r3, .L109+12
	tst	r0, #524288
	it	eq
	moveq	r3, r1
	.loc 1 361 22 view .LVU297
	movs	r1, #1
	str	r3, [r2, #8]
	.loc 1 361 9 is_stmt 1 view .LVU298
	.loc 1 361 22 is_stmt 0 view .LVU299
	strb	r1, [r2, #12]
.L98:
	.loc 1 363 1 view .LVU300
	bx	lr
.L110:
	.align	2
.L109:
	.word	1073898496
	.word	frame_buffer1
	.word	.LANCHOR0
	.word	frame_buffer0
	.cfi_endproc
.LFE117:
	.size	DMA2_Stream1_IRQHandler, .-DMA2_Stream1_IRQHandler
	.align	1
	.p2align 2,,3
	.global	autic_dma_interrupt
	.syntax unified
	.thumb
	.thumb_func
	.type	autic_dma_interrupt, %function
autic_dma_interrupt:
.LFB118:
	.loc 1 366 28 is_stmt 1 view -0
	.cfi_startproc
	@ Volatile: function does not return.
	@ args = 0, pretend = 0, frame = 32
	@ frame_needed = 0, uses_anonymous_args = 0
	push	{r7, lr}
	.cfi_def_cfa_offset 8
	.cfi_offset 7, -8
	.cfi_offset 14, -4
	ldr	r9, .L126+4
.LBB24:
.LBB25:
	.loc 1 199 3 is_stmt 0 view .LVU302
	ldr	r5, .L126
.LBE25:
.LBE24:
	.loc 1 366 28 view .LVU303
	sub	sp, sp, #32
	.cfi_def_cfa_offset 40
.LBB29:
.LBB26:
	.loc 1 197 13 view .LVU304
	movw	r7, #21930
.LBE26:
.LBE29:
	.loc 1 371 26 view .LVU305
	movs	r6, #0
.L112:
	.loc 1 367 5 is_stmt 1 view .LVU306
	.loc 1 368 9 view .LVU307
	.loc 1 368 12 is_stmt 0 view .LVU308
	ldrb	r3, [r9, #12]	@ zero_extendqisi2
	.loc 1 368 11 view .LVU309
	cmp	r3, #0
	beq	.L112
	.loc 1 370 13 is_stmt 1 view .LVU310
	ldr	r4, [r9, #8]
.LVL65:
.LBB30:
.LBI24:
	.loc 1 191 6 view .LVU311
.LBB27:
	.loc 1 193 3 view .LVU312
	.loc 1 194 3 view .LVU313
	.loc 1 197 3 view .LVU314
	.loc 1 198 3 view .LVU315
	.loc 1 197 13 is_stmt 0 view .LVU316
	strh	r7, [sp]	@ movhi
	.loc 1 199 3 is_stmt 1 view .LVU317
	mov	r1, sp
	mov	r0, r5
	bl	txDataNRF24L01
.LVL66:
	.loc 1 201 3 view .LVU318
	.loc 1 201 17 view .LVU319
	add	r8, r4, #38400
	.loc 1 194 15 is_stmt 0 view .LVU320
	movs	r3, #0
	b	.L114
.LVL67:
.L113:
	.loc 1 201 28 is_stmt 1 view .LVU321
	.loc 1 201 17 view .LVU322
	cmp	r4, r8
	beq	.L124
.LVL68:
.L114:
	.loc 1 203 5 view .LVU323
	.loc 1 203 17 is_stmt 0 view .LVU324
	add	r2, r3, #32
	add	r2, sp, r2
	.loc 1 203 41 view .LVU325
	ldrh	r1, [r4]
	.loc 1 203 19 view .LVU326
	strb	r1, [r2, #-32]
	.loc 1 204 42 view .LVU327
	ldrh	r1, [r4]
.LVL69:
	.loc 1 204 5 is_stmt 1 view .LVU328
	.loc 1 204 17 is_stmt 0 view .LVU329
	add	r2, r3, #33
.LVL70:
	.loc 1 204 17 view .LVU330
	add	r2, sp, r2
	.loc 1 204 13 view .LVU331
	adds	r3, r3, #2
.LVL71:
	.loc 1 204 19 view .LVU332
	ubfx	r1, r1, #8, #8
	.loc 1 207 8 view .LVU333
	cmp	r3, #32
	.loc 1 201 17 view .LVU334
	add	r4, r4, #2
	.loc 1 204 19 view .LVU335
	strb	r1, [r2, #-32]
	.loc 1 207 5 is_stmt 1 view .LVU336
	.loc 1 207 8 is_stmt 0 view .LVU337
	bne	.L113
	.loc 1 208 7 is_stmt 1 view .LVU338
	mov	r1, sp
	mov	r0, r5
	bl	txDataNRF24L01
.LVL72:
	.loc 1 209 7 view .LVU339
	.loc 1 201 17 is_stmt 0 view .LVU340
	cmp	r4, r8
	.loc 1 209 9 view .LVU341
	mov	r3, #0
.LVL73:
	.loc 1 201 28 is_stmt 1 view .LVU342
	.loc 1 201 17 view .LVU343
	bne	.L114
.L124:
	.loc 1 214 3 view .LVU344
	.loc 1 214 6 is_stmt 0 view .LVU345
	cbnz	r3, .L125
.LVL74:
.L115:
	.loc 1 214 6 view .LVU346
.LBE27:
.LBE30:
	.loc 1 371 13 is_stmt 1 view .LVU347
	.loc 1 371 26 is_stmt 0 view .LVU348
	strb	r6, [r9, #12]
	b	.L112
.LVL75:
.L125:
.LBB31:
.LBB28:
	.loc 1 215 5 is_stmt 1 view .LVU349
	mov	r1, sp
	mov	r0, r5
	bl	txDataNRF24L01
.LVL76:
	.loc 1 215 5 is_stmt 0 view .LVU350
	b	.L115
.L127:
	.align	2
.L126:
	.word	c_nrf_slave_addr
	.word	.LANCHOR0
.LBE28:
.LBE31:
	.cfi_endproc
.LFE118:
	.size	autic_dma_interrupt, .-autic_dma_interrupt
	.section	.rodata.str1.4
	.align	2
.LC1:
	.ascii	"izvrsavamo inicijalizaciju za Nrf modul\012\012\012"
	.ascii	"\000"
	.align	2
.LC2:
	.ascii	"\012\012wwwwwwwwwwwwwwwwwwwwwwwwwwwwwwwwwwwwwwwwwww"
	.ascii	"wwwwwwwwwwwwwwwwwwwww\012\000"
	.align	2
.LC3:
	.ascii	"w                   nRF24L01 Tx[1]-Rx[0] => [%d]   "
	.ascii	"            w\012\000"
	.align	2
.LC4:
	.ascii	"wwwwwwwwwwwwwwwwwwwwwwwwwwwwwwwwwwwwwwwwwwwwwwwwwww"
	.ascii	"wwwwwwwwwwwww\012\000"
	.align	2
.LC5:
	.ascii	"WWWWWWWWWWWWWWWWWWWWWWWWWWWWWWWWWWWWWWWWWWWWWWWWWWW"
	.ascii	"WWW\012\000"
	.align	2
.LC6:
	.ascii	"WWWWWWWWWWW  Circular buffer od OV7679   WWWWWWWWWW"
	.ascii	"WWW\012\000"
	.align	2
.LC7:
	.ascii	"WWWWWWWWWWWWWWWWWWWWWWWWWWWWWWWWWWWWWWWWWWWWWWwWWWW"
	.ascii	"WWW\012\012\012\000"
	.align	2
.LC8:
	.ascii	"==================================================="
	.ascii	"=============\012\000"
	.align	2
.LC9:
	.ascii	"DCMI inicijalizacija je zavrsena, vrsimo provjeru: "
	.ascii	"\012\012\000"
	.align	2
.LC10:
	.ascii	"###################################################"
	.ascii	"##############\012\000"
	.align	2
.LC11:
	.ascii	"Da li su upisane vrijednosti u nRF modul ???\012\000"
	.align	2
.LC12:
	.ascii	"NRF24L01_RF_SETUP = 0x%xh\012\000"
	.align	2
.LC13:
	.ascii	"NRF24L01_EN_AA = 0x%xh\012\000"
	.section	.text.startup,"ax",%progbits
	.align	1
	.p2align 2,,3
	.global	main
	.syntax unified
	.thumb
	.thumb_func
	.type	main, %function
main:
.LFB110:
	.loc 1 46 1 is_stmt 1 view -0
	.cfi_startproc
	@ Volatile: function does not return.
	@ args = 0, pretend = 0, frame = 8
	@ frame_needed = 0, uses_anonymous_args = 0
	.loc 1 47 3 view .LVU352
	.loc 1 46 1 is_stmt 0 view .LVU353
	push	{lr}
	.cfi_def_cfa_offset 4
	.cfi_offset 14, -4
	sub	sp, sp, #12
	.cfi_def_cfa_offset 16
	.loc 1 47 11 view .LVU354
	movs	r3, #0
	.loc 1 50 5 view .LVU355
	movs	r0, #45
	.loc 1 47 11 view .LVU356
	strb	r3, [sp, #7]
	.loc 1 50 5 is_stmt 1 view .LVU357
	bl	initUSART2
.LVL77:
	.loc 1 51 5 view .LVU358
	bl	initSYSTIMER_TIM7
.LVL78:
	.loc 1 52 5 view .LVU359
	bl	initSYSTIMER
.LVL79:
	.loc 1 55 3 view .LVU360
	ldr	r0, .L135
	bl	printUSART2
.LVL80:
	.loc 1 57 3 view .LVU361
	bl	initGPIOC6_GND
.LVL81:
	.loc 1 58 3 view .LVU362
	movs	r0, #10
	bl	delay_ms
.LVL82:
	.loc 1 59 3 view .LVU363
	add	r0, sp, #7
	bl	chkConnection_GPIOC6_GND
.LVL83:
	.loc 1 61 3 view .LVU364
	ldrb	r0, [sp, #7]	@ zero_extendqisi2
	bl	initnRF24L01
.LVL84:
	.loc 1 62 3 view .LVU365
	mov	r0, #1000
	bl	delay_ms
.LVL85:
	.loc 1 65 3 view .LVU366
	ldr	r0, .L135+4
	bl	printUSART2
.LVL86:
	.loc 1 66 3 view .LVU367
	ldrb	r1, [sp, #7]	@ zero_extendqisi2
	ldr	r0, .L135+8
	bl	printUSART2
.LVL87:
	.loc 1 67 3 view .LVU368
	ldr	r0, .L135+12
	bl	printUSART2
.LVL88:
	.loc 1 72 3 view .LVU369
	.loc 1 72 6 is_stmt 0 view .LVU370
	ldrb	r3, [sp, #7]	@ zero_extendqisi2
	cmp	r3, #1
	beq	.L133
	.loc 1 126 5 is_stmt 1 view .LVU371
	bl	initPWM
.LVL89:
	.loc 1 127 5 view .LVU372
	movs	r0, #10
	bl	delay_ms
.LVL90:
	.loc 1 129 5 view .LVU373
	bl	initLIS320DL
.LVL91:
	.loc 1 130 5 view .LVU374
	movs	r0, #10
	bl	delay_ms
.LVL92:
	.loc 1 132 5 view .LVU375
	movs	r0, #1
	bl	initnRF24L01_SPI3
.LVL93:
	.loc 1 133 5 view .LVU376
	mov	r0, #1000
	bl	delay_ms
.LVL94:
.L130:
	.loc 1 137 3 view .LVU377
	movs	r0, #200
	bl	delay_ms
.LVL95:
	.loc 1 138 3 view .LVU378
	ldr	r0, .L135+16
	bl	printUSART2
.LVL96:
	.loc 1 139 3 view .LVU379
	ldr	r0, .L135+20
	bl	printUSART2
.LVL97:
	.loc 1 140 3 view .LVU380
	.loc 1 140 46 is_stmt 0 view .LVU381
	movs	r0, #6
	bl	getRegNRF24L01
.LVL98:
	mov	r1, r0
	.loc 1 140 3 view .LVU382
	ldr	r0, .L135+24
	bl	printUSART2
.LVL99:
	.loc 1 141 3 is_stmt 1 view .LVU383
	.loc 1 141 43 is_stmt 0 view .LVU384
	movs	r0, #1
	bl	getRegNRF24L01
.LVL100:
	mov	r1, r0
	.loc 1 141 3 view .LVU385
	ldr	r0, .L135+28
	bl	printUSART2
.LVL101:
	.loc 1 142 3 is_stmt 1 view .LVU386
	ldr	r0, .L135+16
	bl	printUSART2
.LVL102:
	.loc 1 146 3 view .LVU387
	.loc 1 146 6 is_stmt 0 view .LVU388
	ldrb	r3, [sp, #7]	@ zero_extendqisi2
	cmp	r3, #1
	beq	.L134
	.loc 1 150 5 is_stmt 1 view .LVU389
	bl	kontroler_double_buffer
.LVL103:
.L133:
	.loc 1 76 3 view .LVU390
	ldr	r0, .L135+32
	bl	printUSART2
.LVL104:
	.loc 1 77 3 view .LVU391
	ldr	r0, .L135+36
	bl	printUSART2
.LVL105:
	.loc 1 78 3 view .LVU392
	ldr	r0, .L135+40
	bl	printUSART2
.LVL106:
	.loc 1 85 3 view .LVU393
	bl	OV7670_XCLK_TIM1_init
.LVL107:
	.loc 1 86 3 view .LVU394
	movs	r0, #100
	bl	delay_ms
.LVL108:
	.loc 1 92 3 view .LVU395
	bl	getOV7670_ID
.LVL109:
	.loc 1 93 3 view .LVU396
	movs	r0, #50
	bl	delay_ms
.LVL110:
	.loc 1 100 3 view .LVU397
	bl	OV7670_SetupQQVGA_Custom_sa_neta
.LVL111:
	.loc 1 101 3 view .LVU398
	mov	r0, #1000
	bl	delay_ms
.LVL112:
	.loc 1 106 3 view .LVU399
	bl	OV7670_VerifyRegisters_Custom
.LVL113:
	.loc 1 107 3 view .LVU400
	ldr	r0, .L135+44
	bl	printUSART2
.LVL114:
	.loc 1 110 3 view .LVU401
	bl	DCMI_Init_OV7670_continuous_mode
.LVL115:
	.loc 1 112 3 view .LVU402
	ldr	r0, .L135+48
	bl	printUSART2
.LVL116:
	.loc 1 113 3 view .LVU403
	bl	DCMI_CheckConfig
.LVL117:
	.loc 1 116 3 view .LVU404
	ldr	r1, .L135+52
	ldr	r0, .L135+56
	mov	r2, #19200
	bl	initDMA2_for_OV7670_continuous_mode_double_buffer
.LVL118:
	.loc 1 117 3 view .LVU405
	movs	r0, #100
	bl	delay_ms
.LVL119:
	.loc 1 119 3 view .LVU406
	bl	checkDMA2_Stream1_status
.LVL120:
	.loc 1 123 3 view .LVU407
	bl	DCMI_start_continuous_mode
.LVL121:
	b	.L130
.L134:
	.loc 1 148 5 view .LVU408
	bl	autic_dma_interrupt
.LVL122:
.L136:
	.align	2
.L135:
	.word	.LC1
	.word	.LC2
	.word	.LC3
	.word	.LC4
	.word	.LC10
	.word	.LC11
	.word	.LC12
	.word	.LC13
	.word	.LC5
	.word	.LC6
	.word	.LC7
	.word	.LC8
	.word	.LC9
	.word	frame_buffer1
	.word	frame_buffer0
	.cfi_endproc
.LFE110:
	.size	main, .-main
	.global	accel_data
	.global	citamo_buffer
	.global	frame_ready
	.global	buffer_ready
	.global	frame_to_send
	.bss
	.align	2
	.set	.LANCHOR0,. + 0
	.type	citamo_buffer, %object
	.size	citamo_buffer, 1
citamo_buffer:
	.space	1
	.space	3
	.type	accel_data, %object
	.size	accel_data, 3
accel_data:
	.space	3
	.space	1
	.type	frame_to_send, %object
	.size	frame_to_send, 4
frame_to_send:
	.space	4
	.type	buffer_ready, %object
	.size	buffer_ready, 1
buffer_ready:
	.space	1
	.type	frame_ready, %object
	.size	frame_ready, 1
frame_ready:
	.space	1
	.text
.Letext0:
	.file 2 "/usr/lib/gcc/arm-none-eabi/12.2.1/include/stdint.h"
	.file 3 "/home/eldar/workspace/msut/STM32F407/Libraries/CMSIS/ST/STM32F4xx/Include/stm32f4xx.h"
	.file 4 "DCMI/dcmi.h"
	.file 5 "nRF24L01/nRF24L01.h"
	.file 6 "lis302dl/lis302dl.h"
	.file 7 "check/check.h"
	.file 8 "led/led.h"
	.file 9 "./dma/dma.h"
	.file 10 "ov7670/ov7670.h"
	.file 11 "gpio/gpioc.h"
	.file 12 "delay/delay.h"
	.file 13 "usart/usart.h"