	.cpu cortex-m4
	.arch armv7e-m
	.fpu fpv4-sp-d16
	.eabi_attribute 27, 1
	.eabi_attribute 28, 1
	.eabi_attribute 20, 1
	.eabi_attribute 21, 1
	.eabi_attribute 23, 3
	.eabi_attribute 24, 1
	.eabi_attribute 25, 1
	.eabi_attribute 26, 1
	.eabi_attribute 30, 2
	.eabi_attribute 34, 1
	.eabi_attribute 18, 4
	.file	"spi.c"
	.text
.Ltext0:
	.cfi_sections	.debug_frame
	.file 1 "spi/spi.c"
	.align	1
	.p2align 2,,3
	.global	initSPI1_accelerometer
	.syntax unified
	.thumb
	.thumb_func
	.type	initSPI1_accelerometer, %function
initSPI1_accelerometer:
.LVL0:
.LFB110:
	.loc 1 8 1 view -0
	.cfi_startproc
	@ args = 0, pretend = 0, frame = 0
	@ frame_needed = 0, uses_anonymous_args = 0
	@ link register save eliminated.
	.loc 1 14 5 view .LVU1
	.loc 1 14 8 is_stmt 0 view .LVU2
	ldr	r1, .L4
	.loc 1 15 10 view .LVU3
	ldr	r2, .L4+4
	.loc 1 26 10 view .LVU4
	ldr	r3, .L4+8
	.loc 1 8 1 view .LVU5
	push	{r4}
	.cfi_def_cfa_offset 4
	.cfi_offset 4, -4
	.loc 1 14 8 view .LVU6
	ldr	r4, [r1, #48]
	.loc 1 14 18 view .LVU7
	orr	r4, r4, #1
	str	r4, [r1, #48]
	.loc 1 15 5 is_stmt 1 view .LVU8
	.loc 1 15 10 is_stmt 0 view .LVU9
	ldr	r4, [r2]
	.loc 1 15 18 view .LVU10
	orr	r4, r4, #43008
	str	r4, [r2]
	.loc 1 16 5 is_stmt 1 view .LVU11
	.loc 1 16 10 is_stmt 0 view .LVU12
	ldr	r4, [r2, #4]
	.loc 1 16 19 view .LVU13
	bic	r4, r4, #224
	str	r4, [r2, #4]
	.loc 1 17 5 is_stmt 1 view .LVU14
	.loc 1 17 10 is_stmt 0 view .LVU15
	ldr	r4, [r2, #8]
	.loc 1 17 20 view .LVU16
	orr	r4, r4, #43008
	str	r4, [r2, #8]
	.loc 1 18 5 is_stmt 1 view .LVU17
	.loc 1 18 10 is_stmt 0 view .LVU18
	ldr	r4, [r2, #12]
	.loc 1 18 18 view .LVU19
	bic	r4, r4, #64512
	str	r4, [r2, #12]
	.loc 1 20 5 is_stmt 1 view .LVU20
	.loc 1 20 15 is_stmt 0 view .LVU21
	ldr	r4, [r2, #32]
	.loc 1 20 19 view .LVU22
	orr	r4, r4, #1426063360
	orr	r4, r4, #5570560
	str	r4, [r2, #32]
	.loc 1 25 5 is_stmt 1 view .LVU23
	.loc 1 25 8 is_stmt 0 view .LVU24
	ldr	r4, [r1, #48]
	.loc 1 25 18 view .LVU25
	orr	r4, r4, #16
	str	r4, [r1, #48]
	.loc 1 26 5 is_stmt 1 view .LVU26
	.loc 1 26 10 is_stmt 0 view .LVU27
	ldr	r4, [r3]
	.loc 1 26 18 view .LVU28
	orr	r4, r4, #64
	str	r4, [r3]
	.loc 1 27 5 is_stmt 1 view .LVU29
	.loc 1 27 10 is_stmt 0 view .LVU30
	ldr	r4, [r3, #4]
	.loc 1 27 19 view .LVU31
	bic	r4, r4, #8
	str	r4, [r3, #4]
	.loc 1 28 5 is_stmt 1 view .LVU32
	.loc 1 28 10 is_stmt 0 view .LVU33
	ldr	r4, [r3, #8]
	.loc 1 28 20 view .LVU34
	orr	r4, r4, #128
	str	r4, [r3, #8]
	.loc 1 29 5 is_stmt 1 view .LVU35
	.loc 1 29 10 is_stmt 0 view .LVU36
	ldr	r4, [r3, #12]
	.loc 1 29 18 view .LVU37
	bic	r4, r4, #192
	str	r4, [r3, #12]
	.loc 1 32 5 is_stmt 1 view .LVU38
	ldr	r4, [r3, #20]
	orr	r4, r4, #8
	str	r4, [r3, #20]
	.loc 1 32 17 view .LVU39
	.loc 1 37 5 view .LVU40
	.loc 1 37 8 is_stmt 0 view .LVU41
	ldr	r3, [r1, #68]
	.loc 1 38 9 view .LVU42
	sub	r2, r2, #53248
	.loc 1 37 18 view .LVU43
	orr	r3, r3, #4096
	str	r3, [r1, #68]
	.loc 1 38 5 is_stmt 1 view .LVU44
	.loc 1 38 9 is_stmt 0 view .LVU45
	ldrh	r3, [r2]
	uxth	r3, r3
	.loc 1 38 15 view .LVU46
	orr	r3, r3, #4
	strh	r3, [r2]	@ movhi
	.loc 1 39 5 is_stmt 1 view .LVU47
	.loc 1 39 9 is_stmt 0 view .LVU48
	ldrh	r3, [r2]
	uxth	r3, r3
	.loc 1 39 15 view .LVU49
	orr	r3, r3, #768
	strh	r3, [r2]	@ movhi
	.loc 1 40 5 is_stmt 1 view .LVU50
	.loc 1 40 9 is_stmt 0 view .LVU51
	ldrh	r3, [r2]
	uxth	r3, r3
	.loc 1 40 15 view .LVU52
	orrs	r3, r3, r0
	strh	r3, [r2]	@ movhi
	.loc 1 42 5 is_stmt 1 view .LVU53
	.loc 1 42 9 is_stmt 0 view .LVU54
	ldrh	r3, [r2]
	.loc 1 44 1 view .LVU55
	ldr	r4, [sp], #4
	.cfi_restore 4
	.cfi_def_cfa_offset 0
	.loc 1 42 9 view .LVU56
	uxth	r3, r3
	.loc 1 42 15 view .LVU57
	orr	r3, r3, #64
	strh	r3, [r2]	@ movhi
	.loc 1 44 1 view .LVU58
	bx	lr
.L5:
	.align	2
.L4:
	.word	1073887232
	.word	1073872896
	.word	1073876992
	.cfi_endproc
.LFE110:
	.size	initSPI1_accelerometer, .-initSPI1_accelerometer
	.align	1
	.p2align 2,,3
	.global	rxByteSPI1
	.syntax unified
	.thumb
	.thumb_func
	.type	rxByteSPI1, %function
rxByteSPI1:
.LFB111:
	.loc 1 49 1 is_stmt 1 view -0
	.cfi_startproc
	@ args = 0, pretend = 0, frame = 0
	@ frame_needed = 0, uses_anonymous_args = 0
	@ link register save eliminated.
	.loc 1 50 3 view .LVU60
	.loc 1 52 3 view .LVU61
	.loc 1 52 12 is_stmt 0 view .LVU62
	ldr	r2, .L15
	movs	r3, #0
	strh	r3, [r2, #12]	@ movhi
	.loc 1 61 3 is_stmt 1 view .LVU63
.L7:
	.loc 1 61 10 discriminator 1 view .LVU64
	.loc 1 61 16 is_stmt 0 discriminator 1 view .LVU65
	ldrh	r3, [r2, #8]
	.loc 1 61 10 discriminator 1 view .LVU66
	lsls	r0, r3, #30
	bpl	.L7
	.loc 1 62 16 view .LVU67
	ldr	r2, .L15
.L8:
	.loc 1 62 10 is_stmt 1 discriminator 1 view .LVU68
	.loc 1 62 16 is_stmt 0 discriminator 1 view .LVU69
	ldrh	r3, [r2, #8]
	.loc 1 62 10 discriminator 1 view .LVU70
	lsls	r1, r3, #31
	bpl	.L8
	.loc 1 63 14 view .LVU71
	ldr	r2, .L15
.L9:
	.loc 1 63 10 is_stmt 1 discriminator 1 view .LVU72
	.loc 1 63 14 is_stmt 0 discriminator 1 view .LVU73
	ldrh	r3, [r2, #8]
	.loc 1 63 10 discriminator 1 view .LVU74
	lsls	r3, r3, #24
	bmi	.L9
	.loc 1 64 3 is_stmt 1 view .LVU75
	.loc 1 64 14 is_stmt 0 view .LVU76
	ldrh	r0, [r2, #12]
.LVL1:
	.loc 1 66 3 is_stmt 1 view .LVU77
	.loc 1 67 1 is_stmt 0 view .LVU78
	uxtb	r0, r0
	.loc 1 67 1 view .LVU79
	bx	lr
.L16:
	.align	2
.L15:
	.word	1073819648
	.cfi_endproc
.LFE111:
	.size	rxByteSPI1, .-rxByteSPI1
	.align	1
	.p2align 2,,3
	.global	txByteSPI1
	.syntax unified
	.thumb
	.thumb_func
	.type	txByteSPI1, %function
txByteSPI1:
.LVL2:
.LFB112:
	.loc 1 71 1 is_stmt 1 view -0
	.cfi_startproc
	@ args = 0, pretend = 0, frame = 0
	@ frame_needed = 0, uses_anonymous_args = 0
	@ link register save eliminated.
	.loc 1 72 3 view .LVU81
	.loc 1 74 3 view .LVU82
	.loc 1 74 12 is_stmt 0 view .LVU83
	ldr	r2, .L26
	strh	r0, [r2, #12]	@ movhi
	.loc 1 76 3 is_stmt 1 view .LVU84
.LVL3:
.L18:
	.loc 1 76 10 discriminator 1 view .LVU85
	.loc 1 76 16 is_stmt 0 discriminator 1 view .LVU86
	ldrh	r3, [r2, #8]
	.loc 1 76 10 discriminator 1 view .LVU87
	lsls	r0, r3, #30
	bpl	.L18
	.loc 1 77 16 view .LVU88
	ldr	r2, .L26
.L19:
	.loc 1 77 10 is_stmt 1 discriminator 1 view .LVU89
	.loc 1 77 16 is_stmt 0 discriminator 1 view .LVU90
	ldrh	r3, [r2, #8]
	.loc 1 77 10 discriminator 1 view .LVU91
	lsls	r1, r3, #31
	bpl	.L19
	.loc 1 78 14 view .LVU92
	ldr	r2, .L26
.L20:
	.loc 1 78 10 is_stmt 1 discriminator 1 view .LVU93
	.loc 1 78 14 is_stmt 0 discriminator 1 view .LVU94
	ldrh	r3, [r2, #8]
	.loc 1 78 10 discriminator 1 view .LVU95
	lsls	r3, r3, #24
	bmi	.L20
	.loc 1 79 3 is_stmt 1 view .LVU96
	.loc 1 79 13 is_stmt 0 view .LVU97
	ldrh	r0, [r2, #12]
.LVL4:
	.loc 1 81 3 is_stmt 1 view .LVU98
	.loc 1 82 1 is_stmt 0 view .LVU99
	uxtb	r0, r0
	.loc 1 82 1 view .LVU100
	bx	lr
.L27:
	.align	2
.L26:
	.word	1073819648
	.cfi_endproc
.LFE112:
	.size	txByteSPI1, .-txByteSPI1
	.align	1
	.p2align 2,,3
	.global	testSPI1_loopback
	.syntax unified
	.thumb
	.thumb_func
	.type	testSPI1_loopback, %function
testSPI1_loopback:
.LFB113:
	.loc 1 87 1 is_stmt 1 view -0
	.cfi_startproc
	@ args = 0, pretend = 0, frame = 0
	@ frame_needed = 0, uses_anonymous_args = 0
	@ link register save eliminated.
	.loc 1 88 5 view .LVU102
.LVL5:
	.loc 1 89 5 view .LVU103
	.loc 1 91 5 view .LVU104
.LBB6:
.LBI6:
	.loc 1 70 9 view .LVU105
.LBB7:
	.loc 1 72 3 view .LVU106
	.loc 1 74 3 view .LVU107
	.loc 1 74 12 is_stmt 0 view .LVU108
	ldr	r2, .L37
	movs	r3, #165
	strh	r3, [r2, #12]	@ movhi
	.loc 1 76 3 is_stmt 1 view .LVU109
.L29:
	.loc 1 76 10 view .LVU110
	.loc 1 76 16 is_stmt 0 view .LVU111
	ldrh	r3, [r2, #8]
	.loc 1 76 10 view .LVU112
	lsls	r0, r3, #30
	bpl	.L29
	.loc 1 77 16 view .LVU113
	ldr	r2, .L37
.L30:
	.loc 1 77 10 is_stmt 1 view .LVU114
	.loc 1 77 16 is_stmt 0 view .LVU115
	ldrh	r3, [r2, #8]
	.loc 1 77 10 view .LVU116
	lsls	r1, r3, #31
	bpl	.L30
	.loc 1 78 14 view .LVU117
	ldr	r2, .L37
.L31:
	.loc 1 78 10 is_stmt 1 view .LVU118
	.loc 1 78 14 is_stmt 0 view .LVU119
	ldrh	r3, [r2, #8]
	.loc 1 78 10 view .LVU120
	lsls	r3, r3, #24
	bmi	.L31
	.loc 1 79 3 is_stmt 1 view .LVU121
	.loc 1 79 13 is_stmt 0 view .LVU122
	ldrh	r0, [r2, #12]
.LVL6:
	.loc 1 81 3 is_stmt 1 view .LVU123
	.loc 1 81 3 is_stmt 0 view .LVU124
.LBE7:
.LBE6:
	.loc 1 93 5 is_stmt 1 view .LVU125
	.loc 1 93 7 is_stmt 0 view .LVU126
	uxtb	r0, r0
	.loc 1 100 1 view .LVU127
	sub	r0, #165
.LVL7:
	.loc 1 100 1 view .LVU128
	clz	r0, r0
.LVL8:
	.loc 1 100 1 view .LVU129
	lsrs	r0, r0, #5
	bx	lr
.L38:
	.align	2
.L37:
	.word	1073819648
	.cfi_endproc
.LFE113:
	.size	testSPI1_loopback, .-testSPI1_loopback
	.section	.rodata.str1.4,"aMS",%progbits,1
	.align	2
.LC0:
	.ascii	"primljeno\012\000"
	.align	2
.LC1:
	.ascii	"nije primljeno\012\000"
	.text
	.align	1
	.p2align 2,,3
	.global	provjera_loopback_test
	.syntax unified
	.thumb
	.thumb_func
	.type	provjera_loopback_test, %function
provjera_loopback_test:
.LFB114:
	.loc 1 105 1 is_stmt 1 view -0
	.cfi_startproc
	@ args = 0, pretend = 0, frame = 0
	@ frame_needed = 0, uses_anonymous_args = 0
	@ link register save eliminated.
	.loc 1 106 3 view .LVU131
.LBB12:
.LBI12:
	.loc 1 86 9 view .LVU132
.LBB13:
	.loc 1 88 5 view .LVU133
.LVL9:
	.loc 1 89 5 view .LVU134
	.loc 1 91 5 view .LVU135
.LBB14:
.LBI14:
	.loc 1 70 9 view .LVU136
.LBB15:
	.loc 1 72 3 view .LVU137
	.loc 1 74 3 view .LVU138
	.loc 1 74 12 is_stmt 0 view .LVU139
	ldr	r2, .L50
	movs	r3, #165
	strh	r3, [r2, #12]	@ movhi
	.loc 1 76 3 is_stmt 1 view .LVU140
.L40:
	.loc 1 76 10 view .LVU141
	.loc 1 76 16 is_stmt 0 view .LVU142
	ldrh	r3, [r2, #8]
	.loc 1 76 10 view .LVU143
	lsls	r0, r3, #30
	bpl	.L40
	.loc 1 77 16 view .LVU144
	ldr	r2, .L50
.L41:
	.loc 1 77 10 is_stmt 1 view .LVU145
	.loc 1 77 16 is_stmt 0 view .LVU146
	ldrh	r3, [r2, #8]
	.loc 1 77 10 view .LVU147
	lsls	r1, r3, #31
	bpl	.L41
	.loc 1 78 14 view .LVU148
	ldr	r2, .L50
.L42:
	.loc 1 78 10 is_stmt 1 view .LVU149
	.loc 1 78 14 is_stmt 0 view .LVU150
	ldrh	r3, [r2, #8]
	.loc 1 78 10 view .LVU151
	lsls	r3, r3, #24
	bmi	.L42
	.loc 1 79 3 is_stmt 1 view .LVU152
	.loc 1 79 13 is_stmt 0 view .LVU153
	ldrh	r3, [r2, #12]
.LVL10:
	.loc 1 81 3 is_stmt 1 view .LVU154
	.loc 1 81 3 is_stmt 0 view .LVU155
.LBE15:
.LBE14:
	.loc 1 93 5 is_stmt 1 view .LVU156
	.loc 1 93 7 is_stmt 0 view .LVU157
	uxtb	r3, r3
	.loc 1 93 7 view .LVU158
	cmp	r3, #165
	beq	.L49
	.loc 1 98 9 is_stmt 1 view .LVU159
.LVL11:
	.loc 1 98 9 is_stmt 0 view .LVU160
.LBE13:
.LBE12:
	.loc 1 109 5 is_stmt 1 view .LVU161
	ldr	r0, .L50+4
	b	printUSART2
.LVL12:
.L49:
	.loc 1 107 5 view .LVU162
	ldr	r0, .L50+8
	b	printUSART2
.LVL13:
.L51:
	.align	2
.L50:
	.word	1073819648
	.word	.LC1
	.word	.LC0
	.cfi_endproc
.LFE114:
	.size	provjera_loopback_test, .-provjera_loopback_test
	.align	1
	.p2align 2,,3
	.global	initSPI2_nRF24lO1_carrier
	.syntax unified
	.thumb
	.thumb_func
	.type	initSPI2_nRF24lO1_carrier, %function
initSPI2_nRF24lO1_carrier:
.LVL14:
.LFB115:
	.loc 1 125 1 view -0
	.cfi_startproc
	@ args = 0, pretend = 0, frame = 0
	@ frame_needed = 0, uses_anonymous_args = 0
	@ link register save eliminated.
	.loc 1 140 5 view .LVU164
	.loc 1 125 1 is_stmt 0 view .LVU165
	push	{r4}
	.cfi_def_cfa_offset 4
	.cfi_offset 4, -4
	.loc 1 140 8 view .LVU166
	ldr	r4, .L54
	.loc 1 141 10 view .LVU167
	ldr	r3, .L54+4
	.loc 1 140 8 view .LVU168
	ldr	r1, [r4, #48]
	.loc 1 165 15 view .LVU169
	ldr	r2, .L54+8
	.loc 1 140 18 view .LVU170
	orr	r1, r1, #2
	str	r1, [r4, #48]
	.loc 1 141 5 is_stmt 1 view .LVU171
	.loc 1 141 10 is_stmt 0 view .LVU172
	ldr	r1, [r3]
	.loc 1 141 18 view .LVU173
	bic	r1, r1, #-67108864
	str	r1, [r3]
	.loc 1 142 5 is_stmt 1 view .LVU174
	.loc 1 142 10 is_stmt 0 view .LVU175
	ldr	r1, [r3]
	.loc 1 142 18 view .LVU176
	orr	r1, r1, #-1476395008
	str	r1, [r3]
	.loc 1 143 5 is_stmt 1 view .LVU177
	.loc 1 143 10 is_stmt 0 view .LVU178
	ldr	r1, [r3, #4]
	.loc 1 143 19 view .LVU179
	bic	r1, r1, #57344
	str	r1, [r3, #4]
	.loc 1 144 5 is_stmt 1 view .LVU180
	.loc 1 144 10 is_stmt 0 view .LVU181
	ldr	r1, [r3, #8]
	.loc 1 144 20 view .LVU182
	orr	r1, r1, #-1476395008
	str	r1, [r3, #8]
	.loc 1 145 5 is_stmt 1 view .LVU183
	.loc 1 145 10 is_stmt 0 view .LVU184
	ldr	r1, [r3, #12]
	.loc 1 145 18 view .LVU185
	bic	r1, r1, #-67108864
	str	r1, [r3, #12]
	.loc 1 147 5 is_stmt 1 view .LVU186
	.loc 1 147 15 is_stmt 0 view .LVU187
	ldr	r1, [r3, #36]
	.loc 1 147 19 view .LVU188
	orr	r1, r1, #1426063360
	orr	r1, r1, #5242880
	str	r1, [r3, #36]
	.loc 1 152 5 is_stmt 1 view .LVU189
	.loc 1 152 10 is_stmt 0 view .LVU190
	ldr	r1, [r3]
	.loc 1 152 18 view .LVU191
	bic	r1, r1, #50331648
	str	r1, [r3]
	.loc 1 153 5 is_stmt 1 view .LVU192
	.loc 1 153 10 is_stmt 0 view .LVU193
	ldr	r1, [r3]
	.loc 1 153 18 view .LVU194
	orr	r1, r1, #16777216
	str	r1, [r3]
	.loc 1 154 5 is_stmt 1 view .LVU195
	.loc 1 154 10 is_stmt 0 view .LVU196
	ldr	r1, [r3, #4]
	.loc 1 154 19 view .LVU197
	bic	r1, r1, #4096
	str	r1, [r3, #4]
	.loc 1 155 5 is_stmt 1 view .LVU198
	.loc 1 155 10 is_stmt 0 view .LVU199
	ldr	r1, [r3, #8]
	.loc 1 155 20 view .LVU200
	orr	r1, r1, #33554432
	str	r1, [r3, #8]
	.loc 1 156 5 is_stmt 1 view .LVU201
	.loc 1 156 10 is_stmt 0 view .LVU202
	ldr	r1, [r3, #12]
	.loc 1 156 18 view .LVU203
	bic	r1, r1, #50331648
	str	r1, [r3, #12]
	.loc 1 158 5 is_stmt 1 view .LVU204
	ldr	r1, [r3, #20]
	orr	r1, r1, #4096
	str	r1, [r3, #20]
	.loc 1 158 17 view .LVU205
	.loc 1 163 5 view .LVU206
	.loc 1 163 8 is_stmt 0 view .LVU207
	ldr	r3, [r4, #64]
	.loc 1 165 15 view .LVU208
	movs	r1, #4
	.loc 1 163 18 view .LVU209
	orr	r3, r3, #16384
	str	r3, [r4, #64]
	.loc 1 165 5 is_stmt 1 view .LVU210
	.loc 1 165 15 is_stmt 0 view .LVU211
	strh	r1, [r2]	@ movhi
	.loc 1 166 5 is_stmt 1 view .LVU212
	.loc 1 166 9 is_stmt 0 view .LVU213
	ldrh	r3, [r2]
	uxth	r3, r3
	.loc 1 166 15 view .LVU214
	orr	r3, r3, #768
	strh	r3, [r2]	@ movhi
	.loc 1 167 5 is_stmt 1 view .LVU215
	.loc 1 167 9 is_stmt 0 view .LVU216
	ldrh	r3, [r2]
	.loc 1 171 1 view .LVU217
	ldr	r4, [sp], #4
	.cfi_restore 4
	.cfi_def_cfa_offset 0
	.loc 1 167 9 view .LVU218
	uxth	r3, r3
	.loc 1 167 15 view .LVU219
	orrs	r3, r3, r0
	strh	r3, [r2]	@ movhi
	.loc 1 169 5 is_stmt 1 view .LVU220
	.loc 1 169 9 is_stmt 0 view .LVU221
	ldrh	r3, [r2]
	uxth	r3, r3
	.loc 1 169 15 view .LVU222
	orr	r3, r3, #64
	strh	r3, [r2]	@ movhi
	.loc 1 171 1 view .LVU223
	bx	lr
.L55:
	.align	2
.L54:
	.word	1073887232
	.word	1073873920
	.word	1073756160
	.cfi_endproc
.LFE115:
	.size	initSPI2_nRF24lO1_carrier, .-initSPI2_nRF24lO1_carrier
	.align	1
	.p2align 2,,3
	.global	rxByteSPI2_nRF_carrier
	.syntax unified
	.thumb
	.thumb_func
	.type	rxByteSPI2_nRF_carrier, %function
rxByteSPI2_nRF_carrier:
.LFB116:
	.loc 1 176 1 is_stmt 1 view -0
	.cfi_startproc
	@ args = 0, pretend = 0, frame = 0
	@ frame_needed = 0, uses_anonymous_args = 0
	@ link register save eliminated.
	.loc 1 177 3 view .LVU225
	.loc 1 179 3 view .LVU226
	.loc 1 179 12 is_stmt 0 view .LVU227
	ldr	r2, .L65
	movs	r3, #0
	strh	r3, [r2, #12]	@ movhi
	.loc 1 188 3 is_stmt 1 view .LVU228
.L57:
	.loc 1 188 10 discriminator 1 view .LVU229
	.loc 1 188 16 is_stmt 0 discriminator 1 view .LVU230
	ldrh	r3, [r2, #8]
	.loc 1 188 10 discriminator 1 view .LVU231
	lsls	r0, r3, #30
	bpl	.L57
	.loc 1 189 16 view .LVU232
	ldr	r2, .L65
.L58:
	.loc 1 189 10 is_stmt 1 discriminator 1 view .LVU233
	.loc 1 189 16 is_stmt 0 discriminator 1 view .LVU234
	ldrh	r3, [r2, #8]
	.loc 1 189 10 discriminator 1 view .LVU235
	lsls	r1, r3, #31
	bpl	.L58
	.loc 1 190 14 view .LVU236
	ldr	r2, .L65
.L59:
	.loc 1 190 10 is_stmt 1 discriminator 1 view .LVU237
	.loc 1 190 14 is_stmt 0 discriminator 1 view .LVU238
	ldrh	r3, [r2, #8]
	.loc 1 190 10 discriminator 1 view .LVU239
	lsls	r3, r3, #24
	bmi	.L59
	.loc 1 191 3 is_stmt 1 view .LVU240
	.loc 1 191 14 is_stmt 0 view .LVU241
	ldrh	r0, [r2, #12]
.LVL15:
	.loc 1 193 3 is_stmt 1 view .LVU242
	.loc 1 194 1 is_stmt 0 view .LVU243
	uxtb	r0, r0
	.loc 1 194 1 view .LVU244
	bx	lr
.L66:
	.align	2
.L65:
	.word	1073756160
	.cfi_endproc
.LFE116:
	.size	rxByteSPI2_nRF_carrier, .-rxByteSPI2_nRF_carrier
	.align	1
	.p2align 2,,3
	.global	txByteSPI2_nRF_carrier
	.syntax unified
	.thumb
	.thumb_func
	.type	txByteSPI2_nRF_carrier, %function
txByteSPI2_nRF_carrier:
.LVL16:
.LFB117:
	.loc 1 198 1 is_stmt 1 view -0
	.cfi_startproc
	@ args = 0, pretend = 0, frame = 0
	@ frame_needed = 0, uses_anonymous_args = 0
	@ link register save eliminated.
	.loc 1 199 3 view .LVU246
	.loc 1 201 3 view .LVU247
	.loc 1 201 12 is_stmt 0 view .LVU248
	ldr	r2, .L76
	strh	r0, [r2, #12]	@ movhi
	.loc 1 203 3 is_stmt 1 view .LVU249
.LVL17:
.L68:
	.loc 1 203 10 discriminator 1 view .LVU250
	.loc 1 203 16 is_stmt 0 discriminator 1 view .LVU251
	ldrh	r3, [r2, #8]
	.loc 1 203 10 discriminator 1 view .LVU252
	lsls	r0, r3, #30
	bpl	.L68
	.loc 1 204 16 view .LVU253
	ldr	r2, .L76
.L69:
	.loc 1 204 10 is_stmt 1 discriminator 1 view .LVU254
	.loc 1 204 16 is_stmt 0 discriminator 1 view .LVU255
	ldrh	r3, [r2, #8]
	.loc 1 204 10 discriminator 1 view .LVU256
	lsls	r1, r3, #31
	bpl	.L69
	.loc 1 205 14 view .LVU257
	ldr	r2, .L76
.L70:
	.loc 1 205 10 is_stmt 1 discriminator 1 view .LVU258
	.loc 1 205 14 is_stmt 0 discriminator 1 view .LVU259
	ldrh	r3, [r2, #8]
	.loc 1 205 10 discriminator 1 view .LVU260
	lsls	r3, r3, #24
	bmi	.L70
	.loc 1 206 3 is_stmt 1 view .LVU261
	.loc 1 206 13 is_stmt 0 view .LVU262
	ldrh	r0, [r2, #12]
.LVL18:
	.loc 1 208 3 is_stmt 1 view .LVU263
	.loc 1 209 1 is_stmt 0 view .LVU264
	uxtb	r0, r0
	.loc 1 209 1 view .LVU265
	bx	lr
.L77:
	.align	2
.L76:
	.word	1073756160
	.cfi_endproc
.LFE117:
	.size	txByteSPI2_nRF_carrier, .-txByteSPI2_nRF_carrier
	.align	1
	.p2align 2,,3
	.global	txSPI2_nRF_carrier
	.syntax unified
	.thumb
	.thumb_func
	.type	txSPI2_nRF_carrier, %function
txSPI2_nRF_carrier:
.LVL19:
.LFB118:
	.loc 1 213 1 is_stmt 1 view -0
	.cfi_startproc
	@ args = 0, pretend = 0, frame = 0
	@ frame_needed = 0, uses_anonymous_args = 0
	@ link register save eliminated.
	.loc 1 214 3 view .LVU267
	.loc 1 215 3 view .LVU268
	.loc 1 215 12 view .LVU269
	cbz	r1, .L78
.LBB18:
.LBB19:
	.loc 1 201 12 is_stmt 0 view .LVU270
	ldr	r3, .L93
	add	r1, r1, r0
.LVL20:
.L83:
	.loc 1 201 12 view .LVU271
.LBE19:
.LBE18:
	.loc 1 217 5 is_stmt 1 discriminator 3 view .LVU272
	ldrb	r2, [r0], #1	@ zero_extendqisi2
.LVL21:
.LBB22:
.LBI18:
	.loc 1 197 9 discriminator 3 view .LVU273
.LBB20:
	.loc 1 199 3 discriminator 3 view .LVU274
	.loc 1 201 3 discriminator 3 view .LVU275
	.loc 1 201 12 is_stmt 0 discriminator 3 view .LVU276
	strh	r2, [r3, #12]	@ movhi
	.loc 1 203 3 is_stmt 1 discriminator 3 view .LVU277
.LVL22:
.L80:
	.loc 1 203 10 view .LVU278
	.loc 1 203 16 is_stmt 0 view .LVU279
	ldrh	r2, [r3, #8]
	.loc 1 203 10 view .LVU280
	lsls	r2, r2, #30
	bpl	.L80
.L81:
	.loc 1 204 10 is_stmt 1 view .LVU281
	.loc 1 204 16 is_stmt 0 view .LVU282
	ldrh	r2, [r3, #8]
	.loc 1 204 10 view .LVU283
	lsls	r2, r2, #31
	bpl	.L81
.L82:
	.loc 1 205 10 is_stmt 1 view .LVU284
	.loc 1 205 14 is_stmt 0 view .LVU285
	ldrh	r2, [r3, #8]
	.loc 1 205 10 view .LVU286
	lsls	r2, r2, #24
	bmi	.L82
	.loc 1 206 3 is_stmt 1 view .LVU287
.LBE20:
.LBE22:
	.loc 1 215 12 is_stmt 0 view .LVU288
	cmp	r0, r1
.LBB23:
.LBB21:
	.loc 1 206 13 view .LVU289
	ldrh	r2, [r3, #12]
.LVL23:
	.loc 1 208 3 is_stmt 1 view .LVU290
	.loc 1 208 3 is_stmt 0 view .LVU291
.LBE21:
.LBE23:
	.loc 1 215 19 is_stmt 1 view .LVU292
	.loc 1 215 12 view .LVU293
	bne	.L83
.LVL24:
.L78:
	.loc 1 219 1 is_stmt 0 view .LVU294
	bx	lr
.L94:
	.align	2
.L93:
	.word	1073756160
	.cfi_endproc
.LFE118:
	.size	txSPI2_nRF_carrier, .-txSPI2_nRF_carrier
	.align	1
	.p2align 2,,3
	.global	rxSPI2_nRF_carrier
	.syntax unified
	.thumb
	.thumb_func
	.type	rxSPI2_nRF_carrier, %function
rxSPI2_nRF_carrier:
.LVL25:
.LFB119:
	.loc 1 223 1 is_stmt 1 view -0
	.cfi_startproc
	@ args = 0, pretend = 0, frame = 0
	@ frame_needed = 0, uses_anonymous_args = 0
	@ link register save eliminated.
	.loc 1 224 3 view .LVU296
	.loc 1 225 3 view .LVU297
	.loc 1 225 14 view .LVU298
	cbz	r1, .L95
.LBB26:
.LBB27:
	.loc 1 179 12 is_stmt 0 view .LVU299
	ldr	r3, .L110
	add	r1, r1, r0
.LVL26:
	.loc 1 179 12 view .LVU300
	mov	ip, #0	@ movhi
.LVL27:
.L100:
	.loc 1 179 12 view .LVU301
.LBE27:
.LBE26:
	.loc 1 226 5 is_stmt 1 discriminator 3 view .LVU302
.LBB29:
.LBI26:
	.loc 1 175 9 discriminator 3 view .LVU303
.LBB28:
	.loc 1 177 3 discriminator 3 view .LVU304
	.loc 1 179 3 discriminator 3 view .LVU305
	.loc 1 179 12 is_stmt 0 discriminator 3 view .LVU306
	strh	ip, [r3, #12]	@ movhi
	.loc 1 188 3 is_stmt 1 discriminator 3 view .LVU307
.L97:
	.loc 1 188 10 view .LVU308
	.loc 1 188 16 is_stmt 0 view .LVU309
	ldrh	r2, [r3, #8]
	.loc 1 188 10 view .LVU310
	lsls	r2, r2, #30
	bpl	.L97
.L98:
	.loc 1 189 10 is_stmt 1 view .LVU311
	.loc 1 189 16 is_stmt 0 view .LVU312
	ldrh	r2, [r3, #8]
	.loc 1 189 10 view .LVU313
	lsls	r2, r2, #31
	bpl	.L98
.L99:
	.loc 1 190 10 is_stmt 1 view .LVU314
	.loc 1 190 14 is_stmt 0 view .LVU315
	ldrh	r2, [r3, #8]
	.loc 1 190 10 view .LVU316
	lsls	r2, r2, #24
	bmi	.L99
	.loc 1 191 3 is_stmt 1 view .LVU317
	.loc 1 191 14 is_stmt 0 view .LVU318
	ldrh	r2, [r3, #12]
.LVL28:
	.loc 1 193 3 is_stmt 1 view .LVU319
	.loc 1 191 8 is_stmt 0 view .LVU320
	strb	r2, [r0], #1
.LVL29:
	.loc 1 191 8 view .LVU321
.LBE28:
.LBE29:
	.loc 1 225 22 is_stmt 1 view .LVU322
	.loc 1 225 14 view .LVU323
	cmp	r0, r1
	bne	.L100
.LVL30:
.L95:
	.loc 1 228 1 is_stmt 0 view .LVU324
	bx	lr
.L111:
	.align	2
.L110:
	.word	1073756160
	.cfi_endproc
.LFE119:
	.size	rxSPI2_nRF_carrier, .-rxSPI2_nRF_carrier
	.align	1
	.p2align 2,,3
	.global	initSPI3_nRF24lO1
	.syntax unified
	.thumb
	.thumb_func
	.type	initSPI3_nRF24lO1, %function
initSPI3_nRF24lO1:
.LVL31:
.LFB120:
	.loc 1 242 1 is_stmt 1 view -0
	.cfi_startproc
	@ args = 0, pretend = 0, frame = 0
	@ frame_needed = 0, uses_anonymous_args = 0
	@ link register save eliminated.
	.loc 1 260 5 view .LVU326
	.loc 1 260 8 is_stmt 0 view .LVU327
	ldr	r1, .L114
	.loc 1 261 10 view .LVU328
	ldr	r3, .L114+4
	.loc 1 274 10 view .LVU329
	ldr	r2, .L114+8
	.loc 1 242 1 view .LVU330
	push	{r4}
	.cfi_def_cfa_offset 4
	.cfi_offset 4, -4
	.loc 1 260 8 view .LVU331
	ldr	r4, [r1, #48]
	.loc 1 260 18 view .LVU332
	orr	r4, r4, #2
	str	r4, [r1, #48]
	.loc 1 261 5 is_stmt 1 view .LVU333
	.loc 1 261 10 is_stmt 0 view .LVU334
	ldr	r4, [r3]
	.loc 1 261 18 view .LVU335
	bic	r4, r4, #4032
	str	r4, [r3]
	.loc 1 262 5 is_stmt 1 view .LVU336
	.loc 1 262 10 is_stmt 0 view .LVU337
	ldr	r4, [r3]
	.loc 1 262 18 view .LVU338
	orr	r4, r4, #2688
	str	r4, [r3]
	.loc 1 263 5 is_stmt 1 view .LVU339
	.loc 1 263 10 is_stmt 0 view .LVU340
	ldr	r4, [r3, #4]
	.loc 1 263 19 view .LVU341
	bic	r4, r4, #56
	str	r4, [r3, #4]
	.loc 1 264 5 is_stmt 1 view .LVU342
	.loc 1 264 10 is_stmt 0 view .LVU343
	ldr	r4, [r3, #8]
	.loc 1 264 20 view .LVU344
	orr	r4, r4, #2688
	str	r4, [r3, #8]
	.loc 1 265 5 is_stmt 1 view .LVU345
	.loc 1 265 10 is_stmt 0 view .LVU346
	ldr	r4, [r3, #12]
	.loc 1 265 18 view .LVU347
	bic	r4, r4, #4032
	str	r4, [r3, #12]
	.loc 1 267 5 is_stmt 1 view .LVU348
	.loc 1 267 15 is_stmt 0 view .LVU349
	ldr	r4, [r3, #32]
	.loc 1 267 19 view .LVU350
	bic	r4, r4, #6684672
	bic	r4, r4, #24576
	str	r4, [r3, #32]
	.loc 1 268 5 is_stmt 1 view .LVU351
	.loc 1 268 15 is_stmt 0 view .LVU352
	ldr	r4, [r3, #32]
	.loc 1 268 19 view .LVU353
	orr	r4, r4, #6684672
	orr	r4, r4, #24576
	str	r4, [r3, #32]
	.loc 1 273 5 is_stmt 1 view .LVU354
	.loc 1 273 8 is_stmt 0 view .LVU355
	ldr	r4, [r1, #48]
	.loc 1 273 18 view .LVU356
	orr	r4, r4, #8
	str	r4, [r1, #48]
	.loc 1 274 5 is_stmt 1 view .LVU357
	.loc 1 274 10 is_stmt 0 view .LVU358
	ldr	r4, [r2]
	.loc 1 274 18 view .LVU359
	bic	r4, r4, #49152
	str	r4, [r2]
	.loc 1 275 5 is_stmt 1 view .LVU360
	.loc 1 275 10 is_stmt 0 view .LVU361
	ldr	r4, [r2]
	.loc 1 275 18 view .LVU362
	orr	r4, r4, #16384
	str	r4, [r2]
	.loc 1 276 5 is_stmt 1 view .LVU363
	.loc 1 276 10 is_stmt 0 view .LVU364
	ldr	r4, [r2, #4]
	.loc 1 276 19 view .LVU365
	bic	r4, r4, #128
	str	r4, [r2, #4]
	.loc 1 277 5 is_stmt 1 view .LVU366
	.loc 1 277 10 is_stmt 0 view .LVU367
	ldr	r4, [r2, #8]
	.loc 1 277 20 view .LVU368
	orr	r4, r4, #32768
	str	r4, [r2, #8]
	.loc 1 278 5 is_stmt 1 view .LVU369
	.loc 1 278 10 is_stmt 0 view .LVU370
	ldr	r4, [r2, #12]
	.loc 1 278 18 view .LVU371
	bic	r4, r4, #49152
	str	r4, [r2, #12]
	.loc 1 280 5 is_stmt 1 view .LVU372
	ldr	r4, [r2, #20]
	orr	r4, r4, #128
	str	r4, [r2, #20]
	.loc 1 280 17 view .LVU373
	.loc 1 285 5 view .LVU374
	.loc 1 285 8 is_stmt 0 view .LVU375
	ldr	r2, [r1, #64]
	.loc 1 287 15 view .LVU376
	sub	r3, r3, #116736
	movs	r4, #4
	.loc 1 285 18 view .LVU377
	orr	r2, r2, #32768
	str	r2, [r1, #64]
	.loc 1 287 5 is_stmt 1 view .LVU378
	.loc 1 287 15 is_stmt 0 view .LVU379
	strh	r4, [r3]	@ movhi
	.loc 1 288 5 is_stmt 1 view .LVU380
	.loc 1 288 9 is_stmt 0 view .LVU381
	ldrh	r2, [r3]
	.loc 1 293 1 view .LVU382
	ldr	r4, [sp], #4
	.cfi_restore 4
	.cfi_def_cfa_offset 0
	.loc 1 288 9 view .LVU383
	uxth	r2, r2
	.loc 1 288 15 view .LVU384
	orr	r2, r2, #768
	strh	r2, [r3]	@ movhi
	.loc 1 289 5 is_stmt 1 view .LVU385
	.loc 1 289 9 is_stmt 0 view .LVU386
	ldrh	r2, [r3]
	uxth	r2, r2
	.loc 1 289 15 view .LVU387
	orrs	r2, r2, r0
	strh	r2, [r3]	@ movhi
	.loc 1 291 5 is_stmt 1 view .LVU388
	.loc 1 291 9 is_stmt 0 view .LVU389
	ldrh	r2, [r3]
	uxth	r2, r2
	.loc 1 291 15 view .LVU390
	orr	r2, r2, #64
	strh	r2, [r3]	@ movhi
	.loc 1 293 1 view .LVU391
	bx	lr
.L115:
	.align	2
.L114:
	.word	1073887232
	.word	1073873920
	.word	1073875968
	.cfi_endproc
.LFE120:
	.size	initSPI3_nRF24lO1, .-initSPI3_nRF24lO1
	.align	1
	.p2align 2,,3
	.global	rxByteSPI3_nRF
	.syntax unified
	.thumb
	.thumb_func
	.type	rxByteSPI3_nRF, %function
rxByteSPI3_nRF:
.LFB121:
	.loc 1 298 1 is_stmt 1 view -0
	.cfi_startproc
	@ args = 0, pretend = 0, frame = 0
	@ frame_needed = 0, uses_anonymous_args = 0
	@ link register save eliminated.
	.loc 1 299 3 view .LVU393
	.loc 1 301 3 view .LVU394
	.loc 1 301 12 is_stmt 0 view .LVU395
	ldr	r2, .L125
	movs	r3, #0
	strh	r3, [r2, #12]	@ movhi
	.loc 1 310 3 is_stmt 1 view .LVU396
.L117:
	.loc 1 310 10 discriminator 1 view .LVU397
	.loc 1 310 16 is_stmt 0 discriminator 1 view .LVU398
	ldrh	r3, [r2, #8]
	.loc 1 310 10 discriminator 1 view .LVU399
	lsls	r0, r3, #30
	bpl	.L117
	.loc 1 311 16 view .LVU400
	ldr	r2, .L125
.L118:
	.loc 1 311 10 is_stmt 1 discriminator 1 view .LVU401
	.loc 1 311 16 is_stmt 0 discriminator 1 view .LVU402
	ldrh	r3, [r2, #8]
	.loc 1 311 10 discriminator 1 view .LVU403
	lsls	r1, r3, #31
	bpl	.L118
	.loc 1 312 14 view .LVU404
	ldr	r2, .L125
.L119:
	.loc 1 312 10 is_stmt 1 discriminator 1 view .LVU405
	.loc 1 312 14 is_stmt 0 discriminator 1 view .LVU406
	ldrh	r3, [r2, #8]
	.loc 1 312 10 discriminator 1 view .LVU407
	lsls	r3, r3, #24
	bmi	.L119
	.loc 1 313 3 is_stmt 1 view .LVU408
	.loc 1 313 14 is_stmt 0 view .LVU409
	ldrh	r0, [r2, #12]
.LVL32:
	.loc 1 315 3 is_stmt 1 view .LVU410
	.loc 1 316 1 is_stmt 0 view .LVU411
	uxtb	r0, r0
	.loc 1 316 1 view .LVU412
	bx	lr
.L126:
	.align	2
.L125:
	.word	1073757184
	.cfi_endproc
.LFE121:
	.size	rxByteSPI3_nRF, .-rxByteSPI3_nRF
	.align	1
	.p2align 2,,3
	.global	txByteSPI3_nRF
	.syntax unified
	.thumb
	.thumb_func
	.type	txByteSPI3_nRF, %function
txByteSPI3_nRF:
.LVL33:
.LFB122:
	.loc 1 320 1 is_stmt 1 view -0
	.cfi_startproc
	@ args = 0, pretend = 0, frame = 0
	@ frame_needed = 0, uses_anonymous_args = 0
	@ link register save eliminated.
	.loc 1 321 3 view .LVU414
	.loc 1 323 3 view .LVU415
	.loc 1 323 12 is_stmt 0 view .LVU416
	ldr	r2, .L136
	strh	r0, [r2, #12]	@ movhi
	.loc 1 325 3 is_stmt 1 view .LVU417
.LVL34:
.L128:
	.loc 1 325 10 discriminator 1 view .LVU418
	.loc 1 325 16 is_stmt 0 discriminator 1 view .LVU419
	ldrh	r3, [r2, #8]
	.loc 1 325 10 discriminator 1 view .LVU420
	lsls	r0, r3, #30
	bpl	.L128
	.loc 1 326 16 view .LVU421
	ldr	r2, .L136
.L129:
	.loc 1 326 10 is_stmt 1 discriminator 1 view .LVU422
	.loc 1 326 16 is_stmt 0 discriminator 1 view .LVU423
	ldrh	r3, [r2, #8]
	.loc 1 326 10 discriminator 1 view .LVU424
	lsls	r1, r3, #31
	bpl	.L129
	.loc 1 327 14 view .LVU425
	ldr	r2, .L136
.L130:
	.loc 1 327 10 is_stmt 1 discriminator 1 view .LVU426
	.loc 1 327 14 is_stmt 0 discriminator 1 view .LVU427
	ldrh	r3, [r2, #8]
	.loc 1 327 10 discriminator 1 view .LVU428
	lsls	r3, r3, #24
	bmi	.L130
	.loc 1 328 3 is_stmt 1 view .LVU429
	.loc 1 328 13 is_stmt 0 view .LVU430
	ldrh	r0, [r2, #12]
.LVL35:
	.loc 1 330 3 is_stmt 1 view .LVU431
	.loc 1 331 1 is_stmt 0 view .LVU432
	uxtb	r0, r0
	.loc 1 331 1 view .LVU433
	bx	lr
.L137:
	.align	2
.L136:
	.word	1073757184
	.cfi_endproc
.LFE122:
	.size	txByteSPI3_nRF, .-txByteSPI3_nRF
	.align	1
	.p2align 2,,3
	.global	txSPI3_nRF
	.syntax unified
	.thumb
	.thumb_func
	.type	txSPI3_nRF, %function
txSPI3_nRF:
.LVL36:
.LFB123:
	.loc 1 335 1 is_stmt 1 view -0
	.cfi_startproc
	@ args = 0, pretend = 0, frame = 0
	@ frame_needed = 0, uses_anonymous_args = 0
	@ link register save eliminated.
	.loc 1 336 3 view .LVU435
	.loc 1 337 3 view .LVU436
	.loc 1 337 12 view .LVU437
	cbz	r1, .L138
.LBB32:
.LBB33:
	.loc 1 323 12 is_stmt 0 view .LVU438
	ldr	r3, .L153
	add	r1, r1, r0
.LVL37:
.L143:
	.loc 1 323 12 view .LVU439
.LBE33:
.LBE32:
	.loc 1 339 5 is_stmt 1 discriminator 3 view .LVU440
	ldrb	r2, [r0], #1	@ zero_extendqisi2
.LVL38:
.LBB36:
.LBI32:
	.loc 1 319 9 discriminator 3 view .LVU441
.LBB34:
	.loc 1 321 3 discriminator 3 view .LVU442
	.loc 1 323 3 discriminator 3 view .LVU443
	.loc 1 323 12 is_stmt 0 discriminator 3 view .LVU444
	strh	r2, [r3, #12]	@ movhi
	.loc 1 325 3 is_stmt 1 discriminator 3 view .LVU445
.LVL39:
.L140:
	.loc 1 325 10 view .LVU446
	.loc 1 325 16 is_stmt 0 view .LVU447
	ldrh	r2, [r3, #8]
	.loc 1 325 10 view .LVU448
	lsls	r2, r2, #30
	bpl	.L140
.L141:
	.loc 1 326 10 is_stmt 1 view .LVU449
	.loc 1 326 16 is_stmt 0 view .LVU450
	ldrh	r2, [r3, #8]
	.loc 1 326 10 view .LVU451
	lsls	r2, r2, #31
	bpl	.L141
.L142:
	.loc 1 327 10 is_stmt 1 view .LVU452
	.loc 1 327 14 is_stmt 0 view .LVU453
	ldrh	r2, [r3, #8]
	.loc 1 327 10 view .LVU454
	lsls	r2, r2, #24
	bmi	.L142
	.loc 1 328 3 is_stmt 1 view .LVU455
.LBE34:
.LBE36:
	.loc 1 337 12 is_stmt 0 view .LVU456
	cmp	r0, r1
.LBB37:
.LBB35:
	.loc 1 328 13 view .LVU457
	ldrh	r2, [r3, #12]
.LVL40:
	.loc 1 330 3 is_stmt 1 view .LVU458
	.loc 1 330 3 is_stmt 0 view .LVU459
.LBE35:
.LBE37:
	.loc 1 337 19 is_stmt 1 view .LVU460
	.loc 1 337 12 view .LVU461
	bne	.L143
.LVL41:
.L138:
	.loc 1 341 1 is_stmt 0 view .LVU462
	bx	lr
.L154:
	.align	2
.L153:
	.word	1073757184
	.cfi_endproc
.LFE123:
	.size	txSPI3_nRF, .-txSPI3_nRF
	.align	1
	.p2align 2,,3
	.global	rxSPI3_nRF
	.syntax unified
	.thumb
	.thumb_func
	.type	rxSPI3_nRF, %function
rxSPI3_nRF:
.LVL42:
.LFB124:
	.loc 1 345 1 is_stmt 1 view -0
	.cfi_startproc
	@ args = 0, pretend = 0, frame = 0
	@ frame_needed = 0, uses_anonymous_args = 0
	@ link register save eliminated.
	.loc 1 346 3 view .LVU464
	.loc 1 347 3 view .LVU465
	.loc 1 347 14 view .LVU466
	cbz	r1, .L155
.LBB40:
.LBB41:
	.loc 1 301 12 is_stmt 0 view .LVU467
	ldr	r3, .L170
	add	r1, r1, r0
.LVL43:
	.loc 1 301 12 view .LVU468
	mov	ip, #0	@ movhi
.LVL44:
.L160:
	.loc 1 301 12 view .LVU469
.LBE41:
.LBE40:
	.loc 1 348 5 is_stmt 1 discriminator 3 view .LVU470
.LBB43:
.LBI40:
	.loc 1 297 9 discriminator 3 view .LVU471
.LBB42:
	.loc 1 299 3 discriminator 3 view .LVU472
	.loc 1 301 3 discriminator 3 view .LVU473
	.loc 1 301 12 is_stmt 0 discriminator 3 view .LVU474
	strh	ip, [r3, #12]	@ movhi
	.loc 1 310 3 is_stmt 1 discriminator 3 view .LVU475
.L157:
	.loc 1 310 10 view .LVU476
	.loc 1 310 16 is_stmt 0 view .LVU477
	ldrh	r2, [r3, #8]
	.loc 1 310 10 view .LVU478
	lsls	r2, r2, #30
	bpl	.L157
.L158:
	.loc 1 311 10 is_stmt 1 view .LVU479
	.loc 1 311 16 is_stmt 0 view .LVU480
	ldrh	r2, [r3, #8]
	.loc 1 311 10 view .LVU481
	lsls	r2, r2, #31
	bpl	.L158
.L159:
	.loc 1 312 10 is_stmt 1 view .LVU482
	.loc 1 312 14 is_stmt 0 view .LVU483
	ldrh	r2, [r3, #8]
	.loc 1 312 10 view .LVU484
	lsls	r2, r2, #24
	bmi	.L159
	.loc 1 313 3 is_stmt 1 view .LVU485
	.loc 1 313 14 is_stmt 0 view .LVU486
	ldrh	r2, [r3, #12]
.LVL45:
	.loc 1 315 3 is_stmt 1 view .LVU487
	.loc 1 313 8 is_stmt 0 view .LVU488
	strb	r2, [r0], #1
.LVL46:
	.loc 1 313 8 view .LVU489
.LBE42:
.LBE43:
	.loc 1 347 22 is_stmt 1 view .LVU490
	.loc 1 347 14 view .LVU491
	cmp	r0, r1
	bne	.L160
.LVL47:
.L155:
	.loc 1 350 1 is_stmt 0 view .LVU492
	bx	lr
.L171:
	.align	2
.L170:
	.word	1073757184
	.cfi_endproc
.LFE124:
	.size	rxSPI3_nRF, .-rxSPI3_nRF
.Letext0:
	.file 2 "/usr/lib/gcc/arm-none-eabi/12.2.1/include/stdint.h"
	.file 3 "/home/eldar/workspace/msut/STM32F407/Libraries/CMSIS/ST/STM32F4xx/Include/stm32f4xx.h"
	.file 4 "spi/../usart/usart.h"