	.cpu cortex-m4
	.arch armv7e-m
	.fpu fpv4-sp-d16
	.eabi_attribute 27, 1
	.eabi_attribute 28, 1
	.eabi_attribute 20, 1
	.eabi_attribute 21, 1
	.eabi_attribute 23, 3
	.eabi_attribute 24, 1
	.eabi_attribute 25, 1
	.eabi_attribute 26, 1
	.eabi_attribute 30, 2
	.eabi_attribute 34, 1
	.eabi_attribute 18, 4
	.file	"main.c"
	.text
.Ltext0:
	.cfi_sections	.debug_frame
	.file 1 "main.c"
	.align	1
	.p2align 2,,3
	.global	autic
	.syntax unified
	.thumb
	.thumb_func
	.type	autic, %function
autic:
.LFB111:
	.loc 1 161 1 view -0
	.cfi_startproc
	@ Volatile: function does not return.
	@ args = 0, pretend = 0, frame = 32
	@ frame_needed = 0, uses_anonymous_args = 0
	push	{r7, lr}
	.cfi_def_cfa_offset 8
	.cfi_offset 7, -8
	.cfi_offset 14, -4
	.loc 1 163 5 is_stmt 0 view .LVU1
	ldr	r6, .L13
	ldr	r7, .L13+4
.LBB4:
.LBB5:
	.loc 1 179 3 view .LVU2
	ldr	r5, .L13+8
.LBE5:
.LBE4:
	.loc 1 161 1 view .LVU3
	sub	sp, sp, #32
	.cfi_def_cfa_offset 40
.L5:
	.loc 1 162 3 is_stmt 1 discriminator 1 view .LVU4
	.loc 1 163 5 discriminator 1 view .LVU5
	mov	r1, #19200
	mov	r0, r6
	bl	DCMI_snapshot_debug
.LVL0:
	.loc 1 164 5 discriminator 1 view .LVU6
	mov	r1, #19200
	mov	r0, r6
	bl	send_frame_buffer
.LVL1:
	.loc 1 165 5 discriminator 1 view .LVU7
.LBB7:
.LBI4:
	.loc 1 172 6 discriminator 1 view .LVU8
.LBB6:
	.loc 1 173 3 discriminator 1 view .LVU9
	.loc 1 174 3 discriminator 1 view .LVU10
	.loc 1 177 3 discriminator 1 view .LVU11
	.loc 1 178 3 discriminator 1 view .LVU12
	.loc 1 177 13 is_stmt 0 discriminator 1 view .LVU13
	movw	r3, #21930
	.loc 1 179 3 discriminator 1 view .LVU14
	mov	r1, sp
	mov	r0, r5
	.loc 1 177 13 discriminator 1 view .LVU15
	strh	r3, [sp]	@ movhi
	.loc 1 179 3 is_stmt 1 discriminator 1 view .LVU16
	ldr	r4, .L13+12
	bl	txDataNRF24L01
.LVL2:
	.loc 1 181 3 discriminator 1 view .LVU17
	.loc 1 181 17 discriminator 1 view .LVU18
	.loc 1 174 15 is_stmt 0 discriminator 1 view .LVU19
	movs	r3, #0
	b	.L3
.LVL3:
.L2:
	.loc 1 181 28 is_stmt 1 view .LVU20
	.loc 1 181 17 view .LVU21
	cmp	r4, r7
	beq	.L12
.LVL4:
.L3:
	.loc 1 183 5 view .LVU22
	.loc 1 183 17 is_stmt 0 view .LVU23
	add	r0, r3, #32
	.loc 1 183 41 view .LVU24
	ldrh	r1, [r4, #2]!
.LVL5:
	.loc 1 184 17 view .LVU25
	add	r2, r3, #33
	.loc 1 183 17 view .LVU26
	add	ip, sp, r0
	.loc 1 184 17 view .LVU27
	add	r2, sp, r2
	.loc 1 184 13 view .LVU28
	adds	r3, r3, #2
	.loc 1 184 19 view .LVU29
	lsrs	r0, r1, #8
	.loc 1 187 8 view .LVU30
	cmp	r3, #32
	.loc 1 183 19 view .LVU31
	strb	r1, [ip, #-32]
	.loc 1 184 5 is_stmt 1 view .LVU32
.LVL6:
	.loc 1 184 19 is_stmt 0 view .LVU33
	strb	r0, [r2, #-32]
	.loc 1 187 5 is_stmt 1 view .LVU34
	.loc 1 187 8 is_stmt 0 view .LVU35
	bne	.L2
	.loc 1 188 7 is_stmt 1 view .LVU36
	mov	r1, sp
	mov	r0, r5
	bl	txDataNRF24L01
.LVL7:
	.loc 1 189 7 view .LVU37
	.loc 1 181 17 is_stmt 0 view .LVU38
	cmp	r4, r7
	.loc 1 189 9 view .LVU39
	mov	r3, #0
.LVL8:
	.loc 1 181 28 is_stmt 1 view .LVU40
	.loc 1 181 17 view .LVU41
	bne	.L3
.L12:
	.loc 1 194 3 view .LVU42
	.loc 1 194 6 is_stmt 0 view .LVU43
	cmp	r3, #0
	beq	.L5
	.loc 1 195 5 is_stmt 1 view .LVU44
	mov	r1, sp
	mov	r0, r5
	bl	txDataNRF24L01
.LVL9:
	.loc 1 197 1 is_stmt 0 view .LVU45
	b	.L5
.L14:
	.align	2
.L13:
	.word	frame_buffer
	.word	frame_buffer+38398
	.word	c_nrf_slave_addr
	.word	frame_buffer-2
.LBE6:
.LBE7:
	.cfi_endproc
.LFE111:
	.size	autic, .-autic
	.align	1
	.p2align 2,,3
	.global	sendFrameNRF
	.syntax unified
	.thumb
	.thumb_func
	.type	sendFrameNRF, %function
sendFrameNRF:
.LVL10:
.LFB112:
	.loc 1 172 60 is_stmt 1 view -0
	.cfi_startproc
	@ args = 0, pretend = 0, frame = 32
	@ frame_needed = 0, uses_anonymous_args = 0
	.loc 1 173 3 view .LVU47
	.loc 1 174 3 view .LVU48
	.loc 1 177 3 view .LVU49
	.loc 1 178 3 view .LVU50
	.loc 1 172 60 is_stmt 0 view .LVU51
	push	{r4, r5, r6, r7, lr}
	.cfi_def_cfa_offset 20
	.cfi_offset 4, -20
	.cfi_offset 5, -16
	.cfi_offset 6, -12
	.cfi_offset 7, -8
	.cfi_offset 14, -4
	sub	sp, sp, #36
	.cfi_def_cfa_offset 56
	.loc 1 172 60 view .LVU52
	mov	r6, r1
	mov	r5, r0
	.loc 1 177 13 view .LVU53
	movw	r3, #21930
	.loc 1 179 3 view .LVU54
	ldr	r0, .L31
.LVL11:
	.loc 1 177 13 view .LVU55
	strh	r3, [sp]	@ movhi
	.loc 1 179 3 is_stmt 1 view .LVU56
	mov	r1, sp
.LVL12:
	.loc 1 179 3 is_stmt 0 view .LVU57
	bl	txDataNRF24L01
.LVL13:
	.loc 1 181 3 is_stmt 1 view .LVU58
	.loc 1 181 17 view .LVU59
	cbz	r6, .L15
	.loc 1 174 15 is_stmt 0 view .LVU60
	movs	r3, #0
	.loc 1 188 7 view .LVU61
	ldr	r7, .L31
	subs	r5, r5, #2
.LVL14:
	.loc 1 181 10 view .LVU62
	mov	r4, r3
	b	.L18
.LVL15:
.L17:
	.loc 1 181 28 is_stmt 1 discriminator 2 view .LVU63
	.loc 1 181 17 discriminator 2 view .LVU64
	cmp	r6, r4
	beq	.L29
.LVL16:
.L18:
	.loc 1 183 5 view .LVU65
	.loc 1 183 17 is_stmt 0 view .LVU66
	add	r1, r3, #32
	.loc 1 183 41 view .LVU67
	ldrh	ip, [r5, #2]!
.LVL17:
	.loc 1 184 17 view .LVU68
	add	r2, r3, #33
	.loc 1 183 17 view .LVU69
	add	r0, sp, r1
	.loc 1 184 17 view .LVU70
	add	r2, sp, r2
	.loc 1 184 13 view .LVU71
	adds	r3, r3, #2
	.loc 1 184 19 view .LVU72
	lsr	r1, ip, #8
	.loc 1 187 8 view .LVU73
	cmp	r3, #32
	.loc 1 183 19 view .LVU74
	strb	ip, [r0, #-32]
	.loc 1 184 5 is_stmt 1 view .LVU75
.LVL18:
	.loc 1 181 28 is_stmt 0 view .LVU76
	add	r4, r4, #1
.LVL19:
	.loc 1 184 19 view .LVU77
	strb	r1, [r2, #-32]
	.loc 1 187 5 is_stmt 1 view .LVU78
	.loc 1 187 8 is_stmt 0 view .LVU79
	bne	.L17
	.loc 1 188 7 is_stmt 1 view .LVU80
	mov	r1, sp
	mov	r0, r7
	bl	txDataNRF24L01
.LVL20:
	.loc 1 189 7 view .LVU81
	.loc 1 181 17 is_stmt 0 view .LVU82
	cmp	r6, r4
	.loc 1 189 9 view .LVU83
	mov	r3, #0
.LVL21:
	.loc 1 181 28 is_stmt 1 view .LVU84
	.loc 1 181 17 view .LVU85
	bne	.L18
.L29:
	.loc 1 194 3 view .LVU86
	.loc 1 194 6 is_stmt 0 view .LVU87
	cbnz	r3, .L30
.LVL22:
.L15:
	.loc 1 197 1 view .LVU88
	add	sp, sp, #36
	.cfi_remember_state
	.cfi_def_cfa_offset 20
	@ sp needed
	pop	{r4, r5, r6, r7, pc}
.LVL23:
.L30:
	.cfi_restore_state
	.loc 1 195 5 is_stmt 1 view .LVU89
	mov	r1, sp
	ldr	r0, .L31
	bl	txDataNRF24L01
.LVL24:
	.loc 1 197 1 is_stmt 0 view .LVU90
	add	sp, sp, #36
	.cfi_def_cfa_offset 20
	@ sp needed
	pop	{r4, r5, r6, r7, pc}
.LVL25:
.L32:
	.loc 1 197 1 view .LVU91
	.align	2
.L31:
	.word	c_nrf_slave_addr
	.cfi_endproc
.LFE112:
	.size	sendFrameNRF, .-sendFrameNRF
	.section	.rodata.str1.4,"aMS",%progbits,1
	.align	2
.LC0:
	.ascii	"Frame primljen, bar msm da je\012\012\012\012\000"
	.text
	.align	1
	.p2align 2,,3
	.global	receiveFrameNRF
	.syntax unified
	.thumb
	.thumb_func
	.type	receiveFrameNRF, %function
receiveFrameNRF:
.LVL26:
.LFB114:
	.loc 1 211 63 is_stmt 1 view -0
	.cfi_startproc
	@ args = 0, pretend = 0, frame = 32
	@ frame_needed = 0, uses_anonymous_args = 0
	.loc 1 212 3 view .LVU93
	.loc 1 213 3 view .LVU94
	.loc 1 214 3 view .LVU95
	.loc 1 211 63 is_stmt 0 view .LVU96
	push	{r4, r5, r6, r7, lr}
	.cfi_def_cfa_offset 20
	.cfi_offset 4, -20
	.cfi_offset 5, -16
	.cfi_offset 6, -12
	.cfi_offset 7, -8
	.cfi_offset 14, -4
	mov	r5, r0
	sub	sp, sp, #36
	.cfi_def_cfa_offset 56
	.loc 1 214 12 view .LVU97
	lsls	r6, r1, #1
.LVL27:
	.loc 1 215 3 is_stmt 1 view .LVU98
	.loc 1 215 11 is_stmt 0 view .LVU99
	movs	r7, #1
	.loc 1 213 12 view .LVU100
	movs	r4, #0
.LVL28:
.L35:
	.loc 1 217 3 is_stmt 1 view .LVU101
	.loc 1 219 5 view .LVU102
	.loc 1 219 9 is_stmt 0 view .LVU103
	bl	dataReadyNRF24L01
.LVL29:
	.loc 1 219 8 view .LVU104
	cmp	r0, #1
	bne	.L35
	.loc 1 220 7 is_stmt 1 view .LVU105
	mov	r0, sp
	bl	rxDataNRF24L01
.LVL30:
	.loc 1 222 7 view .LVU106
	.loc 1 222 10 is_stmt 0 view .LVU107
	cbnz	r7, .L36
.LVL31:
.LBB8:
	.loc 1 230 32 is_stmt 1 view .LVU108
	cmp	r4, r6
	bcs	.L43
	mov	r3, sp
	add	r0, r4, #32
	b	.L42
.LVL32:
.L49:
.LBB9:
	.loc 1 239 25 is_stmt 0 view .LVU109
	adds	r4, r4, #1
.LVL33:
	.loc 1 234 41 view .LVU110
	ldrb	r2, [r3]	@ zero_extendqisi2
	strh	r2, [r5, r1]	@ movhi
	.loc 1 239 11 is_stmt 1 view .LVU111
.LVL34:
	.loc 1 239 11 is_stmt 0 view .LVU112
.LBE9:
	.loc 1 230 66 is_stmt 1 view .LVU113
	.loc 1 230 32 view .LVU114
	cmp	r4, r0
	add	r3, r3, #1
	beq	.L41
.LVL35:
.L50:
	.loc 1 230 32 is_stmt 0 discriminator 3 view .LVU115
	cmp	r6, r4
	beq	.L43
.LVL36:
.L42:
.LBB10:
	.loc 1 231 11 is_stmt 1 view .LVU116
	.loc 1 232 11 view .LVU117
	.loc 1 234 13 view .LVU118
	.loc 1 237 13 view .LVU119
	.loc 1 237 25 is_stmt 0 view .LVU120
	bic	r2, r4, #1
	.loc 1 232 14 view .LVU121
	tst	r4, #1
	.loc 1 234 25 view .LVU122
	mov	r1, r2
	.loc 1 232 14 view .LVU123
	beq	.L49
	.loc 1 237 37 view .LVU124
	ldrb	ip, [r3]	@ zero_extendqisi2
	.loc 1 237 33 view .LVU125
	ldrh	r1, [r5, r2]
	.loc 1 239 25 view .LVU126
	adds	r4, r4, #1
.LVL37:
	.loc 1 237 33 view .LVU127
	orr	r1, r1, ip, lsl #8
.LBE10:
	.loc 1 230 32 view .LVU128
	cmp	r4, r0
.LBB11:
	.loc 1 237 33 view .LVU129
	strh	r1, [r5, r2]	@ movhi
	.loc 1 239 11 is_stmt 1 view .LVU130
.LVL38:
	.loc 1 239 11 is_stmt 0 view .LVU131
.LBE11:
	.loc 1 230 66 is_stmt 1 view .LVU132
	.loc 1 230 32 view .LVU133
	add	r3, r3, #1
	bne	.L50
.LVL39:
.L41:
	.loc 1 230 32 is_stmt 0 view .LVU134
.LBE8:
	.loc 1 243 9 is_stmt 1 view .LVU135
	.loc 1 243 12 is_stmt 0 view .LVU136
	cmp	r6, r4
	bhi	.L35
.LVL40:
.L43:
	.loc 1 244 11 is_stmt 1 view .LVU137
	ldr	r0, .L51
	bl	printUSART2
.LVL41:
	.loc 1 245 11 view .LVU138
	.loc 1 250 1 is_stmt 0 view .LVU139
	add	sp, sp, #36
	.cfi_remember_state
	.cfi_def_cfa_offset 20
	@ sp needed
	pop	{r4, r5, r6, r7, pc}
.LVL42:
.L36:
	.cfi_restore_state
	.loc 1 224 9 is_stmt 1 view .LVU140
	.loc 1 224 12 is_stmt 0 view .LVU141
	ldrb	r3, [sp]	@ zero_extendqisi2
	cmp	r3, #170
	bne	.L35
	.loc 1 224 40 discriminator 1 view .LVU142
	ldrb	r3, [sp, #1]	@ zero_extendqisi2
	.loc 1 226 26 discriminator 1 view .LVU143
	cmp	r3, #85
	itt	eq
	moveq	r7, #0
	moveq	r4, #0
	b	.L35
.L52:
	.align	2
.L51:
	.word	.LC0
	.cfi_endproc
.LFE114:
	.size	receiveFrameNRF, .-receiveFrameNRF
	.align	1
	.p2align 2,,3
	.global	kontroler
	.syntax unified
	.thumb
	.thumb_func
	.type	kontroler, %function
kontroler:
.LFB113:
	.loc 1 202 1 is_stmt 1 view -0
	.cfi_startproc
	@ Volatile: function does not return.
	@ args = 0, pretend = 0, frame = 0
	@ frame_needed = 0, uses_anonymous_args = 0
	push	{r3, lr}
	.cfi_def_cfa_offset 8
	.cfi_offset 3, -8
	.cfi_offset 14, -4
	.loc 1 204 5 is_stmt 0 view .LVU145
	ldr	r4, .L56
.L54:
	.loc 1 203 3 is_stmt 1 discriminator 1 view .LVU146
	.loc 1 204 5 discriminator 1 view .LVU147
	mov	r1, #19200
	mov	r0, r4
	bl	receiveFrameNRF
.LVL43:
	.loc 1 203 9 discriminator 1 view .LVU148
	b	.L54
.L57:
	.align	2
.L56:
	.word	frame_buffer
	.cfi_endproc
.LFE113:
	.size	kontroler, .-kontroler
	.section	.rodata.str1.4
	.align	2
.LC1:
	.ascii	"start code\012\000"
	.align	2
.LC2:
	.ascii	"\012\012wwwwwwwwwwwwwwwwwwwwwwwwwwwwwwwwwwwwwwwwwww"
	.ascii	"wwwwwwwwwwwwwwwwwwwww\012\000"
	.align	2
.LC3:
	.ascii	"w                   nRF24L01 Tx[1]-Rx[0] => [%d]   "
	.ascii	"            w\012\000"
	.align	2
.LC4:
	.ascii	"wwwwwwwwwwwwwwwwwwwwwwwwwwwwwwwwwwwwwwwwwwwwwwwwwww"
	.ascii	"wwwwwwwwwwwww\012\000"
	.align	2
.LC5:
	.ascii	"WWWWWWWWWWWWWWWWWWWWWWWWWWWWWWWWWWWWWWWWWWWWWWw\012"
	.ascii	"\000"
	.align	2
.LC6:
	.ascii	"WWWWWWWWWWW  Snapshot od OV7679   WWWWWWWWWWWWW\012"
	.ascii	"\000"
	.align	2
.LC7:
	.ascii	"WWWWWWWWWWWWWWWWWWWWWWWWWWWWWWWWWWWWWWWWWWWWWWw\012"
	.ascii	"\012\012\000"
	.align	2
.LC8:
	.ascii	"==================================================="
	.ascii	"=============\012\000"
	.align	2
.LC9:
	.ascii	"DCMI inicijalizacija je zavrsena, vrsimo provjeru: "
	.ascii	"\012\012\000"
	.align	2
.LC10:
	.ascii	"================start snapshot==============\012\000"
	.section	.text.startup,"ax",%progbits
	.align	1
	.p2align 2,,3
	.global	main
	.syntax unified
	.thumb
	.thumb_func
	.type	main, %function
main:
.LFB110:
	.loc 1 32 1 view -0
	.cfi_startproc
	@ Volatile: function does not return.
	@ args = 0, pretend = 0, frame = 8
	@ frame_needed = 0, uses_anonymous_args = 0
	.loc 1 33 3 view .LVU150
	.loc 1 32 1 is_stmt 0 view .LVU151
	push	{lr}
	.cfi_def_cfa_offset 4
	.cfi_offset 14, -4
	sub	sp, sp, #12
	.cfi_def_cfa_offset 16
	.loc 1 33 11 view .LVU152
	movs	r3, #0
	.loc 1 37 5 view .LVU153
	movs	r0, #45
	.loc 1 33 11 view .LVU154
	strb	r3, [sp, #7]
	.loc 1 37 5 is_stmt 1 view .LVU155
	bl	initUSART2
.LVL44:
	.loc 1 38 5 view .LVU156
	bl	initSYSTIMER_TIM7
.LVL45:
	.loc 1 39 5 view .LVU157
	bl	initSYSTIMER
.LVL46:
	.loc 1 42 3 view .LVU158
	ldr	r0, .L62
	bl	printUSART2
.LVL47:
	.loc 1 45 3 view .LVU159
	bl	initGPIOC6_GND
.LVL48:
	.loc 1 46 3 view .LVU160
	movs	r0, #10
	bl	delay_ms
.LVL49:
	.loc 1 47 3 view .LVU161
	add	r0, sp, #7
	bl	chkConnection_GPIOC6_GND
.LVL50:
	.loc 1 49 3 view .LVU162
	ldrb	r0, [sp, #7]	@ zero_extendqisi2
	bl	initnRF24L01
.LVL51:
	.loc 1 50 3 view .LVU163
	mov	r0, #1000
	bl	delay_ms
.LVL52:
	.loc 1 52 3 view .LVU164
	ldr	r0, .L62+4
	bl	printUSART2
.LVL53:
	.loc 1 53 3 view .LVU165
	ldrb	r1, [sp, #7]	@ zero_extendqisi2
	ldr	r0, .L62+8
	bl	printUSART2
.LVL54:
	.loc 1 54 3 view .LVU166
	ldr	r0, .L62+12
	bl	printUSART2
.LVL55:
	.loc 1 63 3 view .LVU167
	ldr	r0, .L62+16
	bl	printUSART2
.LVL56:
	.loc 1 64 3 view .LVU168
	ldr	r0, .L62+20
	bl	printUSART2
.LVL57:
	.loc 1 65 3 view .LVU169
	ldr	r0, .L62+24
	bl	printUSART2
.LVL58:
	.loc 1 76 3 view .LVU170
	bl	OV7670_XCLK_TIM1_init
.LVL59:
	.loc 1 77 3 view .LVU171
	movs	r0, #100
	bl	delay_ms
.LVL60:
	.loc 1 83 3 view .LVU172
	bl	getOV7670_ID
.LVL61:
	.loc 1 84 3 view .LVU173
	movs	r0, #50
	bl	delay_ms
.LVL62:
	.loc 1 91 3 view .LVU174
	bl	OV7670_SetupQQVGA_Custom_sa_neta
.LVL63:
	.loc 1 93 3 view .LVU175
	mov	r0, #1000
	bl	delay_ms
.LVL64:
	.loc 1 99 3 view .LVU176
	bl	OV7670_VerifyRegisters_Custom
.LVL65:
	.loc 1 101 3 view .LVU177
	ldr	r0, .L62+28
	bl	printUSART2
.LVL66:
	.loc 1 103 3 view .LVU178
	bl	DCMI_Init_OV7670
.LVL67:
	.loc 1 105 3 view .LVU179
	ldr	r0, .L62+32
	bl	printUSART2
.LVL68:
	.loc 1 106 3 view .LVU180
	bl	DCMI_CheckConfig
.LVL69:
	.loc 1 115 3 view .LVU181
	mov	r1, #19200
	ldr	r0, .L62+36
	bl	initDMA2_for_OV7670_snapshot
.LVL70:
	.loc 1 116 3 view .LVU182
	movs	r0, #100
	bl	delay_ms
.LVL71:
	.loc 1 118 3 view .LVU183
	bl	checkDMA2_Stream1_status
.LVL72:
	.loc 1 120 3 view .LVU184
	ldr	r0, .L62+40
	bl	printUSART2
.LVL73:
	.loc 1 123 3 view .LVU185
	ldr	r0, .L62+36
	mov	r1, #19200
	bl	DCMI_snapshot_debug
.LVL74:
	.loc 1 149 3 view .LVU186
	.loc 1 149 6 is_stmt 0 view .LVU187
	ldrb	r3, [sp, #7]	@ zero_extendqisi2
	cmp	r3, #1
	beq	.L61
	.loc 1 152 5 is_stmt 1 view .LVU188
	bl	kontroler
.LVL75:
.L61:
	.loc 1 150 5 view .LVU189
	bl	autic
.LVL76:
.L63:
	.align	2
.L62:
	.word	.LC1
	.word	.LC2
	.word	.LC3
	.word	.LC4
	.word	.LC5
	.word	.LC6
	.word	.LC7
	.word	.LC8
	.word	.LC9
	.word	frame_buffer
	.word	.LC10
	.cfi_endproc
.LFE110:
	.size	main, .-main
	.text
.Letext0:
	.file 2 "/usr/lib/gcc/arm-none-eabi/12.2.1/include/stdint.h"
	.file 3 "nRF24L01/nRF24L01.h"
	.file 4 "DCMI/dcmi.h"
	.file 5 "check/check.h"
	.file 6 "./dma/dma.h"
	.file 7 "ov7670/ov7670.h"
	.file 8 "gpio/gpioc.h"
	.file 9 "delay/delay.h"
	.file 10 "usart/usart.h"