	.cpu cortex-m4
	.arch armv7e-m
	.fpu fpv4-sp-d16
	.eabi_attribute 27, 1
	.eabi_attribute 28, 1
	.eabi_attribute 20, 1
	.eabi_attribute 21, 1
	.eabi_attribute 23, 3
	.eabi_attribute 24, 1
	.eabi_attribute 25, 1
	.eabi_attribute 26, 1
	.eabi_attribute 30, 2
	.eabi_attribute 34, 1
	.eabi_attribute 18, 4
	.file	"nRF24L01.c"
	.text
.Ltext0:
	.cfi_sections	.debug_frame
	.file 1 "nRF24L01/nRF24L01.c"
	.align	1
	.p2align 2,,3
	.global	setRxAddrNRF24L01
	.syntax unified
	.thumb
	.thumb_func
	.type	setRxAddrNRF24L01, %function
setRxAddrNRF24L01:
.LVL0:
.LFB111:
	.loc 1 143 1 view -0
	.cfi_startproc
	@ args = 0, pretend = 0, frame = 8
	@ frame_needed = 0, uses_anonymous_args = 0
	.loc 1 144 3 view .LVU1
	.loc 1 143 1 is_stmt 0 view .LVU2
	push	{r4, r5, lr}
	.cfi_def_cfa_offset 12
	.cfi_offset 4, -12
	.cfi_offset 5, -8
	.cfi_offset 14, -4
	.loc 1 144 3 view .LVU3
	ldr	r4, .L4
	ldr	r3, [r4, #20]
	.loc 1 143 1 view .LVU4
	sub	sp, sp, #12
	.cfi_def_cfa_offset 24
.LBB18:
.LBB19:
	.loc 1 488 12 view .LVU5
	and	r1, r1, #31
.LVL1:
	.loc 1 488 12 view .LVU6
.LBE19:
.LBE18:
	.loc 1 144 3 view .LVU7
	bic	r3, r3, #2048
.LBB23:
.LBB20:
	.loc 1 489 12 view .LVU8
	orr	r1, r1, #32
.LBE20:
.LBE23:
	.loc 1 144 3 view .LVU9
	str	r3, [r4, #20]
	.loc 1 144 13 is_stmt 1 view .LVU10
	.loc 1 145 3 view .LVU11
.LVL2:
.LBB24:
.LBB21:
	.loc 1 489 12 is_stmt 0 view .LVU12
	strb	r1, [sp, #7]
.LVL3:
	.loc 1 491 3 view .LVU13
	ldr	r3, [r4, #20]
	bic	r3, r3, #4096
	str	r3, [r4, #20]
.LBE21:
.LBE24:
	.loc 1 143 1 view .LVU14
	mov	r5, r0
.LVL4:
.LBB25:
.LBI18:
	.loc 1 482 6 is_stmt 1 view .LVU15
.LBB22:
	.loc 1 488 3 view .LVU16
	.loc 1 489 3 view .LVU17
	.loc 1 491 3 view .LVU18
	.loc 1 491 14 view .LVU19
	.loc 1 492 3 view .LVU20
	movs	r1, #1
	add	r0, sp, #7
.LVL5:
	.loc 1 492 3 is_stmt 0 view .LVU21
	bl	txSPI2_nRF_carrier
.LVL6:
	.loc 1 493 3 is_stmt 1 view .LVU22
	movs	r1, #5
	mov	r0, r5
	bl	txSPI2_nRF_carrier
.LVL7:
	.loc 1 494 3 view .LVU23
	ldr	r3, [r4, #20]
	orr	r3, r3, #4096
	str	r3, [r4, #20]
	.loc 1 494 15 view .LVU24
.LVL8:
	.loc 1 494 15 is_stmt 0 view .LVU25
.LBE22:
.LBE25:
	.loc 1 146 3 is_stmt 1 view .LVU26
	ldr	r3, [r4, #20]
	orr	r3, r3, #2048
	str	r3, [r4, #20]
	.loc 1 146 14 view .LVU27
	.loc 1 147 1 is_stmt 0 view .LVU28
	add	sp, sp, #12
	.cfi_def_cfa_offset 12
	@ sp needed
	pop	{r4, r5, pc}
.LVL9:
.L5:
	.loc 1 147 1 view .LVU29
	.align	2
.L4:
	.word	1073873920
	.cfi_endproc
.LFE111:
	.size	setRxAddrNRF24L01, .-setRxAddrNRF24L01
	.align	1
	.p2align 2,,3
	.global	conRegNRF24L01
	.syntax unified
	.thumb
	.thumb_func
	.type	conRegNRF24L01, %function
conRegNRF24L01:
.LVL10:
.LFB112:
	.loc 1 151 1 is_stmt 1 view -0
	.cfi_startproc
	@ args = 0, pretend = 0, frame = 16
	@ frame_needed = 0, uses_anonymous_args = 0
	.loc 1 152 3 view .LVU31
	.loc 1 151 1 is_stmt 0 view .LVU32
	push	{r4, lr}
	.cfi_def_cfa_offset 8
	.cfi_offset 4, -8
	.cfi_offset 14, -4
.LBB28:
.LBB29:
	.loc 1 488 12 view .LVU33
	and	r0, r0, #31
.LVL11:
	.loc 1 488 12 view .LVU34
.LBE29:
.LBE28:
	.loc 1 151 1 view .LVU35
	sub	sp, sp, #16
	.cfi_def_cfa_offset 24
.LVL12:
.LBB32:
.LBI28:
	.loc 1 482 6 is_stmt 1 view .LVU36
.LBB30:
	.loc 1 488 3 view .LVU37
	.loc 1 489 3 view .LVU38
	.loc 1 491 3 is_stmt 0 view .LVU39
	ldr	r4, .L8
.LBE30:
.LBE32:
	.loc 1 151 1 view .LVU40
	strb	r1, [sp, #7]
.LBB33:
.LBB31:
	.loc 1 489 12 view .LVU41
	orr	r0, r0, #32
	strb	r0, [sp, #15]
.LVL13:
	.loc 1 491 3 is_stmt 1 view .LVU42
	ldr	r3, [r4, #20]
	bic	r3, r3, #4096
	str	r3, [r4, #20]
	.loc 1 491 14 view .LVU43
	.loc 1 492 3 view .LVU44
	add	r0, sp, #15
	movs	r1, #1
.LVL14:
	.loc 1 492 3 is_stmt 0 view .LVU45
	bl	txSPI2_nRF_carrier
.LVL15:
	.loc 1 493 3 is_stmt 1 view .LVU46
	movs	r1, #1
	add	r0, sp, #7
.LVL16:
	.loc 1 493 3 is_stmt 0 view .LVU47
	bl	txSPI2_nRF_carrier
.LVL17:
	.loc 1 494 3 is_stmt 1 view .LVU48
	ldr	r3, [r4, #20]
	orr	r3, r3, #4096
	str	r3, [r4, #20]
	.loc 1 494 15 view .LVU49
.LVL18:
	.loc 1 494 15 is_stmt 0 view .LVU50
.LBE31:
.LBE33:
	.loc 1 153 1 view .LVU51
	add	sp, sp, #16
	.cfi_def_cfa_offset 8
	@ sp needed
	pop	{r4, pc}
.L9:
	.align	2
.L8:
	.word	1073873920
	.cfi_endproc
.LFE112:
	.size	conRegNRF24L01, .-conRegNRF24L01
	.align	1
	.p2align 2,,3
	.global	setRxModeNRF24L01
	.syntax unified
	.thumb
	.thumb_func
	.type	setRxModeNRF24L01, %function
setRxModeNRF24L01:
.LFB113:
	.loc 1 159 1 is_stmt 1 view -0
	.cfi_startproc
	@ args = 0, pretend = 0, frame = 8
	@ frame_needed = 0, uses_anonymous_args = 0
	.loc 1 160 2 view .LVU53
	.loc 1 159 1 is_stmt 0 view .LVU54
	push	{r4, lr}
	.cfi_def_cfa_offset 8
	.cfi_offset 4, -8
	.cfi_offset 14, -4
	.loc 1 160 11 view .LVU55
	ldr	r1, .L12
.LBB42:
.LBB43:
.LBB44:
.LBB45:
	.loc 1 491 3 view .LVU56
	ldr	r4, .L12+4
.LBE45:
.LBE44:
.LBE43:
.LBE42:
	.loc 1 159 1 view .LVU57
	sub	sp, sp, #8
	.cfi_def_cfa_offset 16
	movs	r2, #11
	.loc 1 160 11 view .LVU58
	movs	r0, #0
.LBB52:
.LBB50:
.LBB48:
.LBB46:
	.loc 1 489 12 view .LVU59
	movs	r3, #32
	strb	r2, [sp, #6]
.LBE46:
.LBE48:
.LBE50:
.LBE52:
	.loc 1 160 11 view .LVU60
	strb	r0, [r1]
	.loc 1 162 2 is_stmt 1 view .LVU61
.LVL19:
.LBB53:
.LBI42:
	.loc 1 150 6 view .LVU62
.LBB51:
	.loc 1 152 3 view .LVU63
.LBB49:
.LBI44:
	.loc 1 482 6 view .LVU64
.LBB47:
	.loc 1 488 3 view .LVU65
	.loc 1 489 3 view .LVU66
	.loc 1 489 12 is_stmt 0 view .LVU67
	strb	r3, [sp, #7]
.LVL20:
	.loc 1 491 3 is_stmt 1 view .LVU68
	ldr	r3, [r4, #20]
	bic	r3, r3, #4096
	str	r3, [r4, #20]
	.loc 1 491 14 view .LVU69
	.loc 1 492 3 view .LVU70
	add	r0, sp, #7
	movs	r1, #1
	bl	txSPI2_nRF_carrier
.LVL21:
	.loc 1 493 3 view .LVU71
	movs	r1, #1
	add	r0, sp, #6
.LVL22:
	.loc 1 493 3 is_stmt 0 view .LVU72
	bl	txSPI2_nRF_carrier
.LVL23:
	.loc 1 494 3 is_stmt 1 view .LVU73
	ldr	r3, [r4, #20]
	orr	r3, r3, #4096
	str	r3, [r4, #20]
	.loc 1 494 15 view .LVU74
.LVL24:
	.loc 1 494 15 is_stmt 0 view .LVU75
.LBE47:
.LBE49:
.LBE51:
.LBE53:
	.loc 1 163 2 is_stmt 1 view .LVU76
	ldr	r3, [r4, #20]
	orr	r3, r3, #2048
	str	r3, [r4, #20]
	.loc 1 163 13 view .LVU77
	.loc 1 164 2 view .LVU78
	movs	r0, #130
	bl	delay_us
.LVL25:
	.loc 1 165 2 view .LVU79
	.loc 1 165 2 is_stmt 0 view .LVU80
	movs	r2, #48
.LBB54:
.LBB55:
.LBB56:
.LBB57:
	.loc 1 489 12 view .LVU81
	movs	r3, #39
	strb	r2, [sp, #6]
.LVL26:
	.loc 1 489 12 view .LVU82
.LBE57:
.LBE56:
.LBE55:
.LBI54:
	.loc 1 150 6 is_stmt 1 view .LVU83
.LBB60:
	.loc 1 152 3 view .LVU84
.LBB59:
.LBI56:
	.loc 1 482 6 view .LVU85
.LBB58:
	.loc 1 488 3 view .LVU86
	.loc 1 489 3 view .LVU87
	.loc 1 489 12 is_stmt 0 view .LVU88
	strb	r3, [sp, #7]
.LVL27:
	.loc 1 491 3 is_stmt 1 view .LVU89
	ldr	r3, [r4, #20]
	bic	r3, r3, #4096
	str	r3, [r4, #20]
	.loc 1 491 14 view .LVU90
	.loc 1 492 3 view .LVU91
	add	r0, sp, #7
	movs	r1, #1
	bl	txSPI2_nRF_carrier
.LVL28:
	.loc 1 493 3 view .LVU92
	movs	r1, #1
	add	r0, sp, #6
.LVL29:
	.loc 1 493 3 is_stmt 0 view .LVU93
	bl	txSPI2_nRF_carrier
.LVL30:
	.loc 1 494 3 is_stmt 1 view .LVU94
	ldr	r3, [r4, #20]
	orr	r3, r3, #4096
	str	r3, [r4, #20]
	.loc 1 494 15 view .LVU95
.LVL31:
	.loc 1 494 15 is_stmt 0 view .LVU96
.LBE58:
.LBE59:
.LBE60:
.LBE54:
	.loc 1 166 1 view .LVU97
	add	sp, sp, #8
	.cfi_def_cfa_offset 8
	@ sp needed
	pop	{r4, pc}
.L13:
	.align	2
.L12:
	.word	.LANCHOR0
	.word	1073873920
	.cfi_endproc
.LFE113:
	.size	setRxModeNRF24L01, .-setRxModeNRF24L01
	.align	1
	.p2align 2,,3
	.global	initnRF24L01
	.syntax unified
	.thumb
	.thumb_func
	.type	initnRF24L01, %function
initnRF24L01:
.LVL32:
.LFB110:
	.loc 1 23 1 is_stmt 1 view -0
	.cfi_startproc
	@ args = 0, pretend = 0, frame = 8
	@ frame_needed = 0, uses_anonymous_args = 0
	.loc 1 38 3 view .LVU99
	.loc 1 23 1 is_stmt 0 view .LVU100
	push	{r4, r5, r6, lr}
	.cfi_def_cfa_offset 16
	.cfi_offset 4, -16
	.cfi_offset 5, -12
	.cfi_offset 6, -8
	.cfi_offset 14, -4
	.loc 1 38 24 view .LVU101
	ldr	r5, .L18
	.loc 1 41 20 view .LVU102
	ldr	r2, .L18+4
	.loc 1 38 24 view .LVU103
	strb	r0, [r5, #1]
	.loc 1 39 3 is_stmt 1 view .LVU104
	.loc 1 39 28 is_stmt 0 view .LVU105
	ldrb	r1, [r5, #1]	@ zero_extendqisi2
	.loc 1 65 10 view .LVU106
	ldr	r4, .L18+8
	.loc 1 41 20 view .LVU107
	sub	r3, r2, #8
	.loc 1 23 1 view .LVU108
	sub	sp, sp, #8
	.cfi_def_cfa_offset 24
	.loc 1 41 20 view .LVU109
	cmp	r1, #0
	it	ne
	movne	r3, r2
	.loc 1 53 3 view .LVU110
	movs	r0, #16
.LVL33:
	.loc 1 53 3 view .LVU111
	str	r3, [r5, #4]
	.loc 1 53 3 is_stmt 1 view .LVU112
	bl	initSPI2_nRF24lO1_carrier
.LVL34:
	.loc 1 65 5 view .LVU113
	.loc 1 65 10 is_stmt 0 view .LVU114
	ldr	r3, [r4]
	.loc 1 65 18 view .LVU115
	bic	r3, r3, #12582912
	str	r3, [r4]
	.loc 1 66 5 is_stmt 1 view .LVU116
	.loc 1 66 10 is_stmt 0 view .LVU117
	ldr	r3, [r4]
	.loc 1 66 18 view .LVU118
	orr	r3, r3, #4194304
	str	r3, [r4]
	.loc 1 67 5 is_stmt 1 view .LVU119
	.loc 1 67 10 is_stmt 0 view .LVU120
	ldr	r3, [r4, #4]
	.loc 1 67 19 view .LVU121
	bic	r3, r3, #12582912
	str	r3, [r4, #4]
	.loc 1 68 5 is_stmt 1 view .LVU122
	.loc 1 68 10 is_stmt 0 view .LVU123
	ldr	r3, [r4, #8]
	.loc 1 68 20 view .LVU124
	orr	r3, r3, #8388608
	str	r3, [r4, #8]
	.loc 1 72 3 is_stmt 1 view .LVU125
	ldr	r3, [r4, #20]
	bic	r3, r3, #2048
	str	r3, [r4, #20]
	.loc 1 72 13 view .LVU126
	.loc 1 82 3 view .LVU127
	ldr	r3, [r4, #20]
	orr	r3, r3, #4096
	str	r3, [r4, #20]
	.loc 1 82 15 view .LVU128
	.loc 1 84 3 view .LVU129
	movs	r0, #100
	bl	delay_ms
.LVL35:
	.loc 1 99 3 view .LVU130
.LBB79:
.LBB80:
	.loc 1 144 3 is_stmt 0 view .LVU131
	ldr	r3, [r4, #20]
.LBE80:
.LBE79:
	.loc 1 99 3 view .LVU132
	ldr	r5, [r5, #4]
.LVL36:
.LBB87:
.LBI79:
	.loc 1 142 6 is_stmt 1 view .LVU133
.LBB85:
	.loc 1 144 3 view .LVU134
	.loc 1 144 13 view .LVU135
	.loc 1 145 3 view .LVU136
.LBB81:
.LBI81:
	.loc 1 482 6 view .LVU137
.LBB82:
	.loc 1 488 3 view .LVU138
	.loc 1 489 3 view .LVU139
	.loc 1 491 3 view .LVU140
	.loc 1 489 12 is_stmt 0 view .LVU141
	movs	r2, #43
.LBE82:
.LBE81:
	.loc 1 144 3 view .LVU142
	bic	r3, r3, #2048
	str	r3, [r4, #20]
.LBB84:
.LBB83:
	.loc 1 489 12 view .LVU143
	strb	r2, [sp, #7]
	.loc 1 491 3 view .LVU144
	ldr	r3, [r4, #20]
	bic	r3, r3, #4096
	str	r3, [r4, #20]
	.loc 1 491 14 is_stmt 1 view .LVU145
	.loc 1 492 3 view .LVU146
	add	r0, sp, #7
	movs	r1, #1
	bl	txSPI2_nRF_carrier
.LVL37:
	.loc 1 493 3 view .LVU147
	mov	r0, r5
	movs	r1, #5
	bl	txSPI2_nRF_carrier
.LVL38:
	.loc 1 494 3 view .LVU148
	ldr	r3, [r4, #20]
	orr	r3, r3, #4096
	str	r3, [r4, #20]
	.loc 1 494 15 view .LVU149
.LVL39:
	.loc 1 494 15 is_stmt 0 view .LVU150
.LBE83:
.LBE84:
	.loc 1 146 3 is_stmt 1 view .LVU151
	ldr	r3, [r4, #20]
.LBE85:
.LBE87:
.LBB88:
.LBB89:
.LBB90:
.LBB91:
	.loc 1 489 12 is_stmt 0 view .LVU152
	movs	r2, #37
	movs	r5, #1
.LVL40:
	.loc 1 489 12 view .LVU153
.LBE91:
.LBE90:
.LBE89:
.LBE88:
.LBB98:
.LBB86:
	.loc 1 146 3 view .LVU154
	orr	r3, r3, #2048
	str	r3, [r4, #20]
	.loc 1 146 14 is_stmt 1 view .LVU155
.LVL41:
	.loc 1 146 14 is_stmt 0 view .LVU156
.LBE86:
.LBE98:
	.loc 1 105 3 is_stmt 1 view .LVU157
.LBB99:
.LBB96:
.LBB94:
.LBB92:
	.loc 1 489 12 is_stmt 0 view .LVU158
	strb	r2, [sp, #7]
	strb	r5, [sp, #6]
.LVL42:
	.loc 1 489 12 view .LVU159
.LBE92:
.LBE94:
.LBE96:
.LBI88:
	.loc 1 150 6 is_stmt 1 view .LVU160
.LBB97:
	.loc 1 152 3 view .LVU161
.LBB95:
.LBI90:
	.loc 1 482 6 view .LVU162
.LBB93:
	.loc 1 488 3 view .LVU163
	.loc 1 489 3 view .LVU164
	.loc 1 491 3 view .LVU165
	ldr	r3, [r4, #20]
	bic	r3, r3, #4096
	str	r3, [r4, #20]
	.loc 1 491 14 view .LVU166
	.loc 1 492 3 view .LVU167
	mov	r1, r5
	add	r0, sp, #7
	bl	txSPI2_nRF_carrier
.LVL43:
	.loc 1 493 3 view .LVU168
	mov	r1, r5
	add	r0, sp, #6
.LVL44:
	.loc 1 493 3 is_stmt 0 view .LVU169
	bl	txSPI2_nRF_carrier
.LVL45:
	.loc 1 494 3 is_stmt 1 view .LVU170
	ldr	r3, [r4, #20]
	orr	r3, r3, #4096
	str	r3, [r4, #20]
	.loc 1 494 15 view .LVU171
.LVL46:
	.loc 1 494 15 is_stmt 0 view .LVU172
.LBE93:
.LBE95:
.LBE97:
.LBE99:
	.loc 1 114 3 is_stmt 1 view .LVU173
	.loc 1 114 3 is_stmt 0 view .LVU174
	movs	r6, #32
.LBB100:
.LBB101:
.LBB102:
.LBB103:
	.loc 1 489 12 view .LVU175
	movs	r3, #49
	strb	r6, [sp, #6]
.LVL47:
	.loc 1 489 12 view .LVU176
.LBE103:
.LBE102:
.LBE101:
.LBI100:
	.loc 1 150 6 is_stmt 1 view .LVU177
.LBB106:
	.loc 1 152 3 view .LVU178
.LBB105:
.LBI102:
	.loc 1 482 6 view .LVU179
.LBB104:
	.loc 1 488 3 view .LVU180
	.loc 1 489 3 view .LVU181
	.loc 1 489 12 is_stmt 0 view .LVU182
	strb	r3, [sp, #7]
.LVL48:
	.loc 1 491 3 is_stmt 1 view .LVU183
	ldr	r3, [r4, #20]
	bic	r3, r3, #4096
	str	r3, [r4, #20]
	.loc 1 491 14 view .LVU184
	.loc 1 492 3 view .LVU185
	mov	r1, r5
	add	r0, sp, #7
	bl	txSPI2_nRF_carrier
.LVL49:
	.loc 1 493 3 view .LVU186
	mov	r1, r5
	add	r0, sp, #6
.LVL50:
	.loc 1 493 3 is_stmt 0 view .LVU187
	bl	txSPI2_nRF_carrier
.LVL51:
	.loc 1 494 3 is_stmt 1 view .LVU188
	ldr	r3, [r4, #20]
	orr	r3, r3, #4096
	str	r3, [r4, #20]
	.loc 1 494 15 view .LVU189
.LVL52:
	.loc 1 494 15 is_stmt 0 view .LVU190
.LBE104:
.LBE105:
.LBE106:
.LBE100:
	.loc 1 115 3 is_stmt 1 view .LVU191
.LBB107:
.LBB108:
.LBB109:
.LBB110:
	.loc 1 489 12 is_stmt 0 view .LVU192
	movs	r3, #50
	strb	r6, [sp, #6]
.LVL53:
	.loc 1 489 12 view .LVU193
.LBE110:
.LBE109:
.LBE108:
.LBI107:
	.loc 1 150 6 is_stmt 1 view .LVU194
.LBB113:
	.loc 1 152 3 view .LVU195
.LBB112:
.LBI109:
	.loc 1 482 6 view .LVU196
.LBB111:
	.loc 1 488 3 view .LVU197
	.loc 1 489 3 view .LVU198
	.loc 1 489 12 is_stmt 0 view .LVU199
	strb	r3, [sp, #7]
.LVL54:
	.loc 1 491 3 is_stmt 1 view .LVU200
	ldr	r3, [r4, #20]
	bic	r3, r3, #4096
	str	r3, [r4, #20]
	.loc 1 491 14 view .LVU201
	.loc 1 492 3 view .LVU202
	add	r0, sp, #7
	mov	r1, r5
	bl	txSPI2_nRF_carrier
.LVL55:
	.loc 1 493 3 view .LVU203
	mov	r1, r5
	add	r0, sp, #6
.LVL56:
	.loc 1 493 3 is_stmt 0 view .LVU204
	bl	txSPI2_nRF_carrier
.LVL57:
	.loc 1 494 3 is_stmt 1 view .LVU205
	ldr	r3, [r4, #20]
	orr	r3, r3, #4096
	str	r3, [r4, #20]
	.loc 1 494 15 view .LVU206
.LVL58:
	.loc 1 494 15 is_stmt 0 view .LVU207
.LBE111:
.LBE112:
.LBE113:
.LBE107:
	.loc 1 131 3 is_stmt 1 view .LVU208
	bl	setRxModeNRF24L01
.LVL59:
	.loc 1 132 3 view .LVU209
.LBB114:
.LBI114:
	.loc 1 172 6 view .LVU210
.LBB115:
	.loc 1 174 2 view .LVU211
	ldr	r3, [r4, #20]
	bic	r3, r3, #4096
	str	r3, [r4, #20]
	.loc 1 174 13 view .LVU212
	.loc 1 175 2 view .LVU213
	movs	r0, #226
	bl	txByteSPI2_nRF_carrier
.LVL60:
	.loc 1 176 2 view .LVU214
	ldr	r3, [r4, #20]
	orr	r3, r3, #4096
	str	r3, [r4, #20]
	.loc 1 176 14 view .LVU215
.LBE115:
.LBE114:
	.loc 1 138 1 is_stmt 0 view .LVU216
	add	sp, sp, #8
	.cfi_def_cfa_offset 16
	@ sp needed
	pop	{r4, r5, r6, pc}
.L19:
	.align	2
.L18:
	.word	.LANCHOR0
	.word	.LANCHOR1+8
	.word	1073873920
	.cfi_endproc
.LFE110:
	.size	initnRF24L01, .-initnRF24L01
	.align	1
	.p2align 2,,3
	.global	flushRxNRF24L01
	.syntax unified
	.thumb
	.thumb_func
	.type	flushRxNRF24L01, %function
flushRxNRF24L01:
.LFB114:
	.loc 1 173 1 is_stmt 1 view -0
	.cfi_startproc
	@ args = 0, pretend = 0, frame = 0
	@ frame_needed = 0, uses_anonymous_args = 0
	.loc 1 174 2 view .LVU218
	.loc 1 173 1 is_stmt 0 view .LVU219
	push	{r4, lr}
	.cfi_def_cfa_offset 8
	.cfi_offset 4, -8
	.cfi_offset 14, -4
	.loc 1 174 2 view .LVU220
	ldr	r4, .L22
	ldr	r3, [r4, #20]
	bic	r3, r3, #4096
	str	r3, [r4, #20]
	.loc 1 174 13 is_stmt 1 view .LVU221
	.loc 1 175 2 view .LVU222
	movs	r0, #226
	bl	txByteSPI2_nRF_carrier
.LVL61:
	.loc 1 176 2 view .LVU223
	ldr	r3, [r4, #20]
	orr	r3, r3, #4096
	str	r3, [r4, #20]
	.loc 1 176 14 view .LVU224
	.loc 1 177 1 is_stmt 0 view .LVU225
	pop	{r4, pc}
.L23:
	.align	2
.L22:
	.word	1073873920
	.cfi_endproc
.LFE114:
	.size	flushRxNRF24L01, .-flushRxNRF24L01
	.align	1
	.p2align 2,,3
	.global	setTxAddrNRF24L01
	.syntax unified
	.thumb
	.thumb_func
	.type	setTxAddrNRF24L01, %function
setTxAddrNRF24L01:
.LVL62:
.LFB115:
	.loc 1 183 1 is_stmt 1 view -0
	.cfi_startproc
	@ args = 0, pretend = 0, frame = 8
	@ frame_needed = 0, uses_anonymous_args = 0
	.loc 1 184 3 view .LVU227
	.loc 1 183 1 is_stmt 0 view .LVU228
	push	{r4, r5, lr}
	.cfi_def_cfa_offset 12
	.cfi_offset 4, -12
	.cfi_offset 5, -8
	.cfi_offset 14, -4
	sub	sp, sp, #12
	.cfi_def_cfa_offset 24
.LVL63:
.LBB120:
.LBB121:
	.loc 1 491 3 view .LVU229
	ldr	r4, .L26
	.loc 1 489 12 view .LVU230
	movs	r3, #42
	strb	r3, [sp, #7]
.LVL64:
	.loc 1 491 3 view .LVU231
	ldr	r3, [r4, #20]
	bic	r3, r3, #4096
.LBE121:
.LBE120:
	.loc 1 183 1 view .LVU232
	mov	r5, r0
.LVL65:
.LBB124:
.LBI120:
	.loc 1 482 6 is_stmt 1 view .LVU233
.LBB122:
	.loc 1 488 3 view .LVU234
	.loc 1 489 3 view .LVU235
	.loc 1 491 3 view .LVU236
	str	r3, [r4, #20]
	.loc 1 491 14 view .LVU237
	.loc 1 492 3 view .LVU238
	add	r0, sp, #7
.LVL66:
	.loc 1 492 3 is_stmt 0 view .LVU239
	movs	r1, #1
	bl	txSPI2_nRF_carrier
.LVL67:
	.loc 1 493 3 is_stmt 1 view .LVU240
	mov	r0, r5
	movs	r1, #5
	bl	txSPI2_nRF_carrier
.LVL68:
	.loc 1 494 3 view .LVU241
	ldr	r3, [r4, #20]
.LBE122:
.LBE124:
.LBB125:
.LBB126:
	.loc 1 489 12 is_stmt 0 view .LVU242
	movs	r2, #48
.LBE126:
.LBE125:
.LBB128:
.LBB123:
	.loc 1 494 3 view .LVU243
	orr	r3, r3, #4096
	str	r3, [r4, #20]
	.loc 1 494 15 is_stmt 1 view .LVU244
.LVL69:
	.loc 1 494 15 is_stmt 0 view .LVU245
.LBE123:
.LBE128:
	.loc 1 185 3 is_stmt 1 view .LVU246
.LBB129:
.LBI125:
	.loc 1 482 6 view .LVU247
.LBB127:
	.loc 1 488 3 view .LVU248
	.loc 1 489 3 view .LVU249
	.loc 1 489 12 is_stmt 0 view .LVU250
	strb	r2, [sp, #7]
.LVL70:
	.loc 1 491 3 is_stmt 1 view .LVU251
	ldr	r3, [r4, #20]
	bic	r3, r3, #4096
	str	r3, [r4, #20]
	.loc 1 491 14 view .LVU252
	.loc 1 492 3 view .LVU253
	add	r0, sp, #7
	movs	r1, #1
	bl	txSPI2_nRF_carrier
.LVL71:
	.loc 1 493 3 view .LVU254
	movs	r1, #5
	mov	r0, r5
	bl	txSPI2_nRF_carrier
.LVL72:
	.loc 1 494 3 view .LVU255
	ldr	r3, [r4, #20]
	orr	r3, r3, #4096
	str	r3, [r4, #20]
	.loc 1 494 15 view .LVU256
.LVL73:
	.loc 1 494 15 is_stmt 0 view .LVU257
.LBE127:
.LBE129:
	.loc 1 186 1 view .LVU258
	add	sp, sp, #12
	.cfi_def_cfa_offset 12
	@ sp needed
	pop	{r4, r5, pc}
.LVL74:
.L27:
	.loc 1 186 1 view .LVU259
	.align	2
.L26:
	.word	1073873920
	.cfi_endproc
.LFE115:
	.size	setTxAddrNRF24L01, .-setTxAddrNRF24L01
	.align	1
	.p2align 2,,3
	.global	getRegNRF24L01
	.syntax unified
	.thumb
	.thumb_func
	.type	getRegNRF24L01, %function
getRegNRF24L01:
.LVL75:
.LFB116:
	.loc 1 190 1 is_stmt 1 view -0
	.cfi_startproc
	@ args = 0, pretend = 0, frame = 16
	@ frame_needed = 0, uses_anonymous_args = 0
	.loc 1 191 3 view .LVU261
	.loc 1 192 3 view .LVU262
	.loc 1 190 1 is_stmt 0 view .LVU263
	push	{r4, lr}
	.cfi_def_cfa_offset 8
	.cfi_offset 4, -8
	.cfi_offset 14, -4
	sub	sp, sp, #16
	.cfi_def_cfa_offset 24
	.loc 1 196 3 view .LVU264
	ldr	r4, .L30
	.loc 1 192 7 view .LVU265
	and	r0, r0, #31
.LVL76:
	.loc 1 192 7 view .LVU266
	strb	r0, [sp, #7]
	.loc 1 196 3 is_stmt 1 view .LVU267
	ldr	r3, [r4, #20]
	bic	r3, r3, #4096
	str	r3, [r4, #20]
	.loc 1 196 14 view .LVU268
	.loc 1 197 3 view .LVU269
	add	r0, sp, #7
	movs	r1, #1
	bl	txSPI2_nRF_carrier
.LVL77:
	.loc 1 198 3 view .LVU270
	add	r0, sp, #15
	movs	r1, #1
	bl	rxSPI2_nRF_carrier
.LVL78:
	.loc 1 199 3 view .LVU271
	ldr	r3, [r4, #20]
	orr	r3, r3, #4096
	str	r3, [r4, #20]
	.loc 1 199 15 view .LVU272
	.loc 1 200 3 view .LVU273
	.loc 1 201 1 is_stmt 0 view .LVU274
	ldrb	r0, [sp, #15]	@ zero_extendqisi2
	add	sp, sp, #16
	.cfi_def_cfa_offset 8
	@ sp needed
	pop	{r4, pc}
.L31:
	.align	2
.L30:
	.word	1073873920
	.cfi_endproc
.LFE116:
	.size	getRegNRF24L01, .-getRegNRF24L01
	.section	.rodata.str1.4,"aMS",%progbits,1
	.align	2
.LC0:
	.ascii	"TIMEOUT\012\000"
	.text
	.align	1
	.p2align 2,,3
	.global	txPacketNRF24L01
	.syntax unified
	.thumb
	.thumb_func
	.type	txPacketNRF24L01, %function
txPacketNRF24L01:
.LVL79:
.LFB117:
	.loc 1 250 37 is_stmt 1 view -0
	.cfi_startproc
	@ args = 0, pretend = 0, frame = 8
	@ frame_needed = 0, uses_anonymous_args = 0
	.loc 1 251 3 view .LVU276
	.loc 1 250 37 is_stmt 0 view .LVU277
	push	{r4, r5, r6, r7, r8, r9, lr}
	.cfi_def_cfa_offset 28
	.cfi_offset 4, -28
	.cfi_offset 5, -24
	.cfi_offset 6, -20
	.cfi_offset 7, -16
	.cfi_offset 8, -12
	.cfi_offset 9, -8
	.cfi_offset 14, -4
	sub	sp, sp, #12
	.cfi_def_cfa_offset 40
	.loc 1 250 37 view .LVU278
	mov	r8, r0
	.loc 1 251 21 view .LVU279
	bl	getSYSTIMER_TIM7
.LVL80:
	.loc 1 251 21 view .LVU280
	ldr	r6, .L41
.LBB142:
.LBB143:
	.loc 1 196 3 view .LVU281
	ldr	r4, .L41+4
.LBE143:
.LBE142:
	.loc 1 251 21 view .LVU282
	mov	r5, r0
.LVL81:
	.loc 1 252 3 is_stmt 1 view .LVU283
	.loc 1 254 3 view .LVU284
	movs	r7, #7
	.loc 1 254 9 is_stmt 0 view .LVU285
	b	.L33
.LVL82:
.L36:
	.loc 1 254 9 view .LVU286
	strb	r7, [sp, #6]
.LVL83:
.LBB147:
.LBI142:
	.loc 1 189 9 is_stmt 1 view .LVU287
.LBB144:
	.loc 1 191 3 view .LVU288
	.loc 1 192 3 view .LVU289
	.loc 1 196 3 view .LVU290
	ldr	r3, [r4, #20]
	bic	r3, r3, #4096
	str	r3, [r4, #20]
	.loc 1 196 14 view .LVU291
	.loc 1 197 3 view .LVU292
	bl	txSPI2_nRF_carrier
.LVL84:
	.loc 1 198 3 view .LVU293
	mov	r1, r9
	add	r0, sp, #7
	bl	rxSPI2_nRF_carrier
.LVL85:
	.loc 1 199 3 view .LVU294
.LBE144:
.LBE147:
	.loc 1 263 5 view .LVU295
.LBB148:
.LBB145:
	.loc 1 199 3 is_stmt 0 view .LVU296
	ldr	r3, [r4, #20]
	orr	r3, r3, #4096
	str	r3, [r4, #20]
	.loc 1 199 15 is_stmt 1 view .LVU297
	.loc 1 200 3 view .LVU298
	.loc 1 200 10 is_stmt 0 view .LVU299
	ldrb	r3, [sp, #7]	@ zero_extendqisi2
.LVL86:
	.loc 1 200 10 view .LVU300
.LBE145:
.LBE148:
	.loc 1 257 5 is_stmt 1 view .LVU301
	.loc 1 257 8 is_stmt 0 view .LVU302
	tst	r3, #48
	.loc 1 263 9 view .LVU303
	mov	r1, #1000
	mov	r0, r5
	.loc 1 257 8 view .LVU304
	bne	.L39
.LVL87:
	.loc 1 263 9 view .LVU305
	bl	chk4TimeoutSYSTIMER_TIM7
.LVL88:
	.loc 1 263 8 view .LVU306
	cmp	r0, #0
	beq	.L40
.LVL89:
.L33:
	.loc 1 256 5 is_stmt 1 view .LVU307
	.loc 1 254 19 view .LVU308
	ldrb	r3, [r6]	@ zero_extendqisi2
	uxtb	r9, r3
	cmp	r3, #1
.LBB149:
.LBB146:
	.loc 1 197 3 is_stmt 0 view .LVU309
	add	r0, sp, #6
	mov	r1, r9
.LBE146:
.LBE149:
	.loc 1 254 19 view .LVU310
	beq	.L36
.L35:
.LVL90:
.LBB150:
.LBI150:
	.loc 1 250 6 is_stmt 1 view .LVU311
.LBB151:
	.loc 1 269 5 view .LVU312
	ldr	r4, .L41+4
	ldr	r3, [r4, #20]
.LBB152:
.LBB153:
	.loc 1 512 11 is_stmt 0 view .LVU313
	movs	r5, #1
.LVL91:
	.loc 1 512 11 view .LVU314
.LBE153:
.LBE152:
	.loc 1 269 5 view .LVU315
	bic	r3, r3, #2048
	str	r3, [r4, #20]
	.loc 1 269 15 is_stmt 1 view .LVU316
	.loc 1 270 5 view .LVU317
.LBB162:
.LBI152:
	.loc 1 510 6 view .LVU318
.LBB161:
	.loc 1 512 2 view .LVU319
	.loc 1 512 11 is_stmt 0 view .LVU320
	strb	r5, [r6]
	.loc 1 513 2 is_stmt 1 view .LVU321
.LVL92:
	.loc 1 513 2 is_stmt 0 view .LVU322
	movs	r3, #10
.LBB154:
.LBB155:
.LBB156:
.LBB157:
	.loc 1 489 12 view .LVU323
	movs	r6, #32
	strb	r6, [sp, #7]
	strb	r3, [sp, #6]
.LVL93:
	.loc 1 489 12 view .LVU324
.LBE157:
.LBE156:
.LBE155:
.LBI154:
	.loc 1 150 6 is_stmt 1 view .LVU325
.LBB160:
	.loc 1 152 3 view .LVU326
.LBB159:
.LBI156:
	.loc 1 482 6 view .LVU327
.LBB158:
	.loc 1 488 3 view .LVU328
	.loc 1 489 3 view .LVU329
	.loc 1 491 3 view .LVU330
	ldr	r3, [r4, #20]
.LVL94:
	.loc 1 491 3 is_stmt 0 view .LVU331
	bic	r3, r3, #4096
	str	r3, [r4, #20]
.LVL95:
	.loc 1 491 14 is_stmt 1 view .LVU332
	.loc 1 492 3 view .LVU333
	mov	r1, r5
	add	r0, sp, #7
	bl	txSPI2_nRF_carrier
.LVL96:
	.loc 1 493 3 view .LVU334
	mov	r1, r5
	add	r0, sp, #6
.LVL97:
	.loc 1 493 3 is_stmt 0 view .LVU335
	bl	txSPI2_nRF_carrier
.LVL98:
	.loc 1 494 3 is_stmt 1 view .LVU336
	ldr	r3, [r4, #20]
	orr	r3, r3, #4096
	str	r3, [r4, #20]
	.loc 1 494 15 view .LVU337
.LVL99:
	.loc 1 494 15 is_stmt 0 view .LVU338
.LBE158:
.LBE159:
.LBE160:
.LBE154:
.LBE161:
.LBE162:
	.loc 1 271 5 is_stmt 1 view .LVU339
.LBB163:
.LBI163:
	.loc 1 500 6 view .LVU340
.LBB164:
	.loc 1 502 2 view .LVU341
	ldr	r3, [r4, #20]
	bic	r3, r3, #4096
	str	r3, [r4, #20]
	.loc 1 502 13 view .LVU342
	.loc 1 503 2 view .LVU343
	movs	r0, #225
	bl	txByteSPI2_nRF_carrier
.LVL100:
	.loc 1 504 2 view .LVU344
	ldr	r3, [r4, #20]
	orr	r3, r3, #4096
	str	r3, [r4, #20]
	.loc 1 504 14 view .LVU345
.LBE164:
.LBE163:
	.loc 1 272 5 view .LVU346
	ldr	r3, [r4, #20]
	bic	r3, r3, #4096
	str	r3, [r4, #20]
	.loc 1 272 16 view .LVU347
	.loc 1 274 5 view .LVU348
	.loc 1 275 5 is_stmt 0 view .LVU349
	mov	r1, r5
	.loc 1 274 9 view .LVU350
	movs	r3, #160
	.loc 1 275 5 view .LVU351
	add	r0, sp, #7
	.loc 1 274 9 view .LVU352
	strb	r3, [sp, #7]
	.loc 1 275 5 is_stmt 1 view .LVU353
	bl	txSPI2_nRF_carrier
.LVL101:
	.loc 1 276 5 view .LVU354
	mov	r1, r6
	mov	r0, r8
	bl	txSPI2_nRF_carrier
.LVL102:
	.loc 1 279 5 view .LVU355
	ldr	r3, [r4, #20]
	orr	r3, r3, #4096
	str	r3, [r4, #20]
	.loc 1 279 17 view .LVU356
	.loc 1 280 5 view .LVU357
	ldr	r3, [r4, #20]
	orr	r3, r3, #2048
	.loc 1 282 5 is_stmt 0 view .LVU358
	movs	r0, #130
	.loc 1 280 5 view .LVU359
	str	r3, [r4, #20]
	.loc 1 280 16 is_stmt 1 view .LVU360
	.loc 1 282 5 view .LVU361
	bl	delay_us
.LVL103:
	.loc 1 282 5 is_stmt 0 view .LVU362
.LBE151:
.LBE150:
	.loc 1 284 1 view .LVU363
	add	sp, sp, #12
	.cfi_remember_state
	.cfi_def_cfa_offset 28
	@ sp needed
	pop	{r4, r5, r6, r7, r8, r9, pc}
.LVL104:
.L39:
	.cfi_restore_state
	.loc 1 258 7 is_stmt 1 view .LVU364
	.loc 1 258 16 is_stmt 0 view .LVU365
	movs	r3, #0
	strb	r3, [r6]
	.loc 1 259 7 is_stmt 1 view .LVU366
	b	.L35
.LVL105:
.L40:
	.loc 1 264 7 view .LVU367
	ldr	r0, .L41+8
	.loc 1 284 1 is_stmt 0 view .LVU368
	add	sp, sp, #12
	.cfi_def_cfa_offset 28
	@ sp needed
	pop	{r4, r5, r6, r7, r8, r9, lr}
	.cfi_restore 14
	.cfi_restore 9
	.cfi_restore 8
	.cfi_restore 7
	.cfi_restore 6
	.cfi_restore 5
	.cfi_restore 4
	.cfi_def_cfa_offset 0
.LVL106:
	.loc 1 264 7 view .LVU369
	b	printUSART2
.LVL107:
.L42:
	.align	2
.L41:
	.word	.LANCHOR0
	.word	1073873920
	.word	.LC0
	.cfi_endproc
.LFE117:
	.size	txPacketNRF24L01, .-txPacketNRF24L01
	.align	1
	.p2align 2,,3
	.global	txStatusNRF
	.syntax unified
	.thumb
	.thumb_func
	.type	txStatusNRF, %function
txStatusNRF:
.LFB118:
	.loc 1 315 22 is_stmt 1 view -0
	.cfi_startproc
	@ args = 0, pretend = 0, frame = 8
	@ frame_needed = 0, uses_anonymous_args = 0
	.loc 1 316 3 view .LVU371
	.loc 1 317 3 view .LVU372
	.loc 1 315 22 is_stmt 0 view .LVU373
	push	{r4, r5, lr}
	.cfi_def_cfa_offset 12
	.cfi_offset 4, -12
	.cfi_offset 5, -8
	.cfi_offset 14, -4
	.loc 1 317 16 view .LVU374
	ldr	r3, .L51
	ldrb	r3, [r3]	@ zero_extendqisi2
	.loc 1 317 6 view .LVU375
	cmp	r3, #1
	.loc 1 315 22 view .LVU376
	sub	sp, sp, #12
	.cfi_def_cfa_offset 24
	.loc 1 317 6 view .LVU377
	beq	.L50
.L44:
	.loc 1 342 12 view .LVU378
	movs	r4, #0
.L45:
.LVL108:
	.loc 1 344 3 is_stmt 1 view .LVU379
	.loc 1 345 1 is_stmt 0 view .LVU380
	mov	r0, r4
	add	sp, sp, #12
	.cfi_remember_state
	.cfi_def_cfa_offset 12
	@ sp needed
	pop	{r4, r5, pc}
.LVL109:
.L50:
	.cfi_restore_state
	.loc 1 318 5 is_stmt 1 view .LVU381
.LBB167:
.LBB168:
	.loc 1 196 3 is_stmt 0 view .LVU382
	ldr	r5, .L51+4
	uxtb	r4, r3
	movs	r3, #7
	strb	r3, [sp, #6]
.LVL110:
	.loc 1 196 3 view .LVU383
.LBE168:
.LBI167:
	.loc 1 189 9 is_stmt 1 view .LVU384
.LBB169:
	.loc 1 191 3 view .LVU385
	.loc 1 192 3 view .LVU386
	.loc 1 196 3 view .LVU387
	ldr	r3, [r5, #20]
.LVL111:
	.loc 1 196 3 is_stmt 0 view .LVU388
	bic	r3, r3, #4096
	str	r3, [r5, #20]
.LVL112:
	.loc 1 196 14 is_stmt 1 view .LVU389
	.loc 1 197 3 view .LVU390
	add	r0, sp, #6
	mov	r1, r4
	bl	txSPI2_nRF_carrier
.LVL113:
	.loc 1 198 3 view .LVU391
	mov	r1, r4
	add	r0, sp, #7
	bl	rxSPI2_nRF_carrier
.LVL114:
	.loc 1 199 3 view .LVU392
	ldr	r3, [r5, #20]
	orr	r3, r3, #4096
	str	r3, [r5, #20]
	.loc 1 199 15 view .LVU393
	.loc 1 200 3 view .LVU394
	.loc 1 200 10 is_stmt 0 view .LVU395
	ldrb	r3, [sp, #7]	@ zero_extendqisi2
.LVL115:
	.loc 1 200 10 view .LVU396
.LBE169:
.LBE167:
	.loc 1 319 5 is_stmt 1 view .LVU397
	.loc 1 319 8 is_stmt 0 view .LVU398
	tst	r3, #48
	beq	.L45
	.loc 1 321 7 is_stmt 1 view .LVU399
	bl	setRxModeNRF24L01
.LVL116:
	.loc 1 337 7 view .LVU400
	.loc 1 337 7 is_stmt 0 view .LVU401
	b	.L44
.L52:
	.align	2
.L51:
	.word	.LANCHOR0
	.word	1073873920
	.cfi_endproc
.LFE118:
	.size	txStatusNRF, .-txStatusNRF
	.align	1
	.p2align 2,,3
	.global	txDataNRF24L01
	.syntax unified
	.thumb
	.thumb_func
	.type	txDataNRF24L01, %function
txDataNRF24L01:
.LVL117:
.LFB119:
	.loc 1 377 1 is_stmt 1 view -0
	.cfi_startproc
	@ args = 0, pretend = 0, frame = 8
	@ frame_needed = 0, uses_anonymous_args = 0
	.loc 1 378 3 view .LVU403
	.loc 1 377 1 is_stmt 0 view .LVU404
	push	{r4, r5, r6, r7, r8, lr}
	.cfi_def_cfa_offset 24
	.cfi_offset 4, -24
	.cfi_offset 5, -20
	.cfi_offset 6, -16
	.cfi_offset 7, -12
	.cfi_offset 8, -8
	.cfi_offset 14, -4
	sub	sp, sp, #8
	.cfi_def_cfa_offset 32
.LBB180:
.LBB181:
.LBB182:
.LBB183:
	.loc 1 491 3 view .LVU405
	ldr	r5, .L64
.LBE183:
.LBE182:
.LBE181:
.LBE180:
	.loc 1 377 1 view .LVU406
	mov	r6, r1
	mov	r4, r0
	.loc 1 378 21 view .LVU407
	bl	getSYSTIMER_TIM7
.LVL118:
.LBB195:
.LBB192:
.LBB186:
.LBB184:
	.loc 1 489 12 view .LVU408
	movs	r3, #42
	strb	r3, [sp, #7]
	.loc 1 491 3 view .LVU409
	ldr	r3, [r5, #20]
	bic	r3, r3, #4096
	str	r3, [r5, #20]
	.loc 1 492 3 view .LVU410
	movs	r1, #1
.LBE184:
.LBE186:
.LBE192:
.LBE195:
	.loc 1 378 21 view .LVU411
	mov	r7, r0
.LVL119:
	.loc 1 379 3 is_stmt 1 view .LVU412
	.loc 1 380 3 view .LVU413
.LBB196:
.LBI180:
	.loc 1 182 6 view .LVU414
.LBB193:
	.loc 1 184 3 view .LVU415
.LBB187:
.LBI182:
	.loc 1 482 6 view .LVU416
.LBB185:
	.loc 1 488 3 view .LVU417
	.loc 1 489 3 view .LVU418
	.loc 1 491 3 view .LVU419
	.loc 1 491 14 view .LVU420
	.loc 1 492 3 view .LVU421
	add	r0, sp, #7
.LVL120:
	.loc 1 492 3 is_stmt 0 view .LVU422
	bl	txSPI2_nRF_carrier
.LVL121:
	.loc 1 493 3 is_stmt 1 view .LVU423
	movs	r1, #5
	mov	r0, r4
	bl	txSPI2_nRF_carrier
.LVL122:
	.loc 1 494 3 view .LVU424
	ldr	r3, [r5, #20]
	orr	r3, r3, #4096
	str	r3, [r5, #20]
	.loc 1 494 15 view .LVU425
.LVL123:
	.loc 1 494 15 is_stmt 0 view .LVU426
.LBE185:
.LBE187:
	.loc 1 185 3 is_stmt 1 view .LVU427
.LBB188:
.LBI188:
	.loc 1 482 6 view .LVU428
.LBB189:
	.loc 1 488 3 view .LVU429
	.loc 1 489 3 view .LVU430
	.loc 1 489 12 is_stmt 0 view .LVU431
	movs	r3, #48
	strb	r3, [sp, #7]
.LVL124:
	.loc 1 491 3 is_stmt 1 view .LVU432
	ldr	r3, [r5, #20]
	bic	r3, r3, #4096
	str	r3, [r5, #20]
	.loc 1 491 14 view .LVU433
	.loc 1 492 3 view .LVU434
	movs	r1, #1
	add	r0, sp, #7
	bl	txSPI2_nRF_carrier
.LVL125:
	.loc 1 493 3 view .LVU435
	mov	r0, r4
	movs	r1, #5
	bl	txSPI2_nRF_carrier
.LVL126:
	.loc 1 494 3 view .LVU436
	ldr	r3, [r5, #20]
	orr	r3, r3, #4096
.LBE189:
.LBE188:
.LBE193:
.LBE196:
	.loc 1 381 3 is_stmt 0 view .LVU437
	mov	r0, r6
.LBB197:
.LBB194:
.LBB191:
.LBB190:
	.loc 1 494 3 view .LVU438
	str	r3, [r5, #20]
	.loc 1 494 15 is_stmt 1 view .LVU439
.LVL127:
	.loc 1 494 15 is_stmt 0 view .LVU440
.LBE190:
.LBE191:
.LBE194:
.LBE197:
	.loc 1 381 3 is_stmt 1 view .LVU441
	bl	txPacketNRF24L01
.LVL128:
	.loc 1 383 3 view .LVU442
	ldr	r6, .L64+4
.LVL129:
	.loc 1 383 3 is_stmt 0 view .LVU443
	mov	r8, #7
.LVL130:
.L57:
	.loc 1 383 24 is_stmt 1 view .LVU444
.LBB198:
.LBI198:
	.loc 1 315 9 view .LVU445
.LBB199:
	.loc 1 316 3 view .LVU446
	.loc 1 317 3 view .LVU447
	.loc 1 317 16 is_stmt 0 view .LVU448
	ldrb	r3, [r6]	@ zero_extendqisi2
	.loc 1 317 6 view .LVU449
	cmp	r3, #1
	.loc 1 317 16 view .LVU450
	uxtb	r4, r3
	.loc 1 317 6 view .LVU451
	beq	.L62
.L54:
.LBE199:
.LBE198:
	.loc 1 379 11 view .LVU452
	movs	r4, #0
.LVL131:
	.loc 1 389 3 is_stmt 1 view .LVU453
	.loc 1 390 1 is_stmt 0 view .LVU454
	mov	r0, r4
	add	sp, sp, #8
	.cfi_remember_state
	.cfi_def_cfa_offset 24
	@ sp needed
	pop	{r4, r5, r6, r7, r8, pc}
.LVL132:
.L62:
	.cfi_restore_state
.LBB208:
.LBB204:
	.loc 1 318 5 is_stmt 1 view .LVU455
	strb	r8, [sp, #6]
.LVL133:
.LBB200:
.LBI200:
	.loc 1 189 9 view .LVU456
.LBB201:
	.loc 1 191 3 view .LVU457
	.loc 1 192 3 view .LVU458
	.loc 1 196 3 view .LVU459
	ldr	r3, [r5, #20]
	bic	r3, r3, #4096
	str	r3, [r5, #20]
	.loc 1 196 14 view .LVU460
	.loc 1 197 3 view .LVU461
	mov	r1, r4
	add	r0, sp, #6
	bl	txSPI2_nRF_carrier
.LVL134:
	.loc 1 198 3 view .LVU462
	mov	r1, r4
	add	r0, sp, #7
	bl	rxSPI2_nRF_carrier
.LVL135:
	.loc 1 199 3 view .LVU463
	.loc 1 199 3 is_stmt 0 view .LVU464
.LBE201:
.LBE200:
	.loc 1 344 3 is_stmt 1 view .LVU465
	.loc 1 344 3 is_stmt 0 view .LVU466
.LBE204:
.LBE208:
	.loc 1 384 5 is_stmt 1 view .LVU467
.LBB209:
.LBB205:
.LBB203:
.LBB202:
	.loc 1 199 3 is_stmt 0 view .LVU468
	ldr	r3, [r5, #20]
	orr	r3, r3, #4096
	str	r3, [r5, #20]
	.loc 1 199 15 is_stmt 1 view .LVU469
	.loc 1 200 3 view .LVU470
	.loc 1 200 10 is_stmt 0 view .LVU471
	ldrb	r3, [sp, #7]	@ zero_extendqisi2
.LVL136:
	.loc 1 200 10 view .LVU472
.LBE202:
.LBE203:
	.loc 1 319 5 is_stmt 1 view .LVU473
	.loc 1 319 8 is_stmt 0 view .LVU474
	tst	r3, #48
.LBE205:
.LBE209:
	.loc 1 384 9 view .LVU475
	mov	r1, #100
	mov	r0, r7
.LBB210:
.LBB206:
	.loc 1 319 8 view .LVU476
	bne	.L63
.LVL137:
	.loc 1 319 8 view .LVU477
.LBE206:
.LBE210:
	.loc 1 384 9 view .LVU478
	bl	chk4TimeoutSYSTIMER_TIM7
.LVL138:
	.loc 1 384 8 view .LVU479
	cmp	r0, #0
	bne	.L57
.LVL139:
	.loc 1 389 3 is_stmt 1 view .LVU480
	.loc 1 390 1 is_stmt 0 view .LVU481
	mov	r0, r4
	add	sp, sp, #8
	.cfi_remember_state
	.cfi_def_cfa_offset 24
	@ sp needed
	pop	{r4, r5, r6, r7, r8, pc}
.LVL140:
.L63:
	.cfi_restore_state
.LBB211:
.LBB207:
	.loc 1 321 7 is_stmt 1 view .LVU482
	bl	setRxModeNRF24L01
.LVL141:
	.loc 1 337 7 view .LVU483
	.loc 1 344 3 view .LVU484
	.loc 1 344 3 is_stmt 0 view .LVU485
	b	.L54
.L65:
	.align	2
.L64:
	.word	1073873920
	.word	.LANCHOR0
.LBE207:
.LBE211:
	.cfi_endproc
.LFE119:
	.size	txDataNRF24L01, .-txDataNRF24L01
	.align	1
	.p2align 2,,3
	.global	dataReadyNRF24L01
	.syntax unified
	.thumb
	.thumb_func
	.type	dataReadyNRF24L01, %function
dataReadyNRF24L01:
.LFB120:
	.loc 1 393 1 is_stmt 1 view -0
	.cfi_startproc
	@ args = 0, pretend = 0, frame = 8
	@ frame_needed = 0, uses_anonymous_args = 0
	.loc 1 394 3 view .LVU487
	.loc 1 393 1 is_stmt 0 view .LVU488
	push	{r4, lr}
	.cfi_def_cfa_offset 8
	.cfi_offset 4, -8
	.cfi_offset 14, -4
	sub	sp, sp, #8
	.cfi_def_cfa_offset 16
.LBB216:
.LBB217:
	.loc 1 196 3 view .LVU489
	ldr	r4, .L71
	movs	r3, #7
	strb	r3, [sp, #6]
.LVL142:
	.loc 1 196 3 view .LVU490
.LBE217:
.LBI216:
	.loc 1 189 9 is_stmt 1 view .LVU491
.LBB218:
	.loc 1 191 3 view .LVU492
	.loc 1 192 3 view .LVU493
	.loc 1 196 3 view .LVU494
	ldr	r3, [r4, #20]
.LVL143:
	.loc 1 196 3 is_stmt 0 view .LVU495
	bic	r3, r3, #4096
	str	r3, [r4, #20]
.LVL144:
	.loc 1 196 14 is_stmt 1 view .LVU496
	.loc 1 197 3 view .LVU497
	movs	r1, #1
	add	r0, sp, #6
	bl	txSPI2_nRF_carrier
.LVL145:
	.loc 1 198 3 view .LVU498
	movs	r1, #1
	add	r0, sp, #7
	bl	rxSPI2_nRF_carrier
.LVL146:
	.loc 1 199 3 view .LVU499
	ldr	r3, [r4, #20]
	orr	r3, r3, #4096
	str	r3, [r4, #20]
	.loc 1 199 15 view .LVU500
	.loc 1 200 3 view .LVU501
	.loc 1 200 10 is_stmt 0 view .LVU502
	ldrb	r3, [sp, #7]	@ zero_extendqisi2
.LVL147:
	.loc 1 200 10 view .LVU503
.LBE218:
.LBE216:
	.loc 1 397 3 is_stmt 1 view .LVU504
	.loc 1 397 6 is_stmt 0 view .LVU505
	lsls	r3, r3, #25
	bpl	.L70
	.loc 1 400 12 view .LVU506
	movs	r0, #1
.LVL148:
	.loc 1 412 3 is_stmt 1 view .LVU507
	.loc 1 413 1 is_stmt 0 view .LVU508
	add	sp, sp, #8
	.cfi_remember_state
	.cfi_def_cfa_offset 8
	@ sp needed
	pop	{r4, pc}
.LVL149:
.L70:
	.cfi_restore_state
	.loc 1 403 5 is_stmt 1 view .LVU509
	movs	r3, #23
	strb	r3, [sp, #6]
.LVL150:
.LBB219:
.LBI219:
	.loc 1 189 9 view .LVU510
.LBB220:
	.loc 1 191 3 view .LVU511
	.loc 1 192 3 view .LVU512
	.loc 1 196 3 view .LVU513
	ldr	r3, [r4, #20]
.LVL151:
	.loc 1 196 3 is_stmt 0 view .LVU514
	bic	r3, r3, #4096
	str	r3, [r4, #20]
.LVL152:
	.loc 1 196 14 is_stmt 1 view .LVU515
	.loc 1 197 3 view .LVU516
	add	r0, sp, #6
	movs	r1, #1
	bl	txSPI2_nRF_carrier
.LVL153:
	.loc 1 198 3 view .LVU517
	add	r0, sp, #7
	movs	r1, #1
	bl	rxSPI2_nRF_carrier
.LVL154:
	.loc 1 199 3 view .LVU518
	ldr	r3, [r4, #20]
	orr	r3, r3, #4096
	str	r3, [r4, #20]
	.loc 1 199 15 view .LVU519
	.loc 1 200 3 view .LVU520
	.loc 1 200 10 is_stmt 0 view .LVU521
	ldrb	r0, [sp, #7]	@ zero_extendqisi2
.LVL155:
	.loc 1 200 10 view .LVU522
.LBE220:
.LBE219:
	.loc 1 405 5 is_stmt 1 view .LVU523
	.loc 1 406 5 view .LVU524
	mvns	r0, r0
	and	r0, r0, #1
.LVL156:
	.loc 1 412 3 view .LVU525
	.loc 1 413 1 is_stmt 0 view .LVU526
	add	sp, sp, #8
	.cfi_def_cfa_offset 8
	@ sp needed
	pop	{r4, pc}
.L72:
	.align	2
.L71:
	.word	1073873920
	.cfi_endproc
.LFE120:
	.size	dataReadyNRF24L01, .-dataReadyNRF24L01
	.align	1
	.p2align 2,,3
	.global	rxDataNRF24L01
	.syntax unified
	.thumb
	.thumb_func
	.type	rxDataNRF24L01, %function
rxDataNRF24L01:
.LVL157:
.LFB121:
	.loc 1 419 1 is_stmt 1 view -0
	.cfi_startproc
	@ args = 0, pretend = 0, frame = 8
	@ frame_needed = 0, uses_anonymous_args = 0
	.loc 1 421 3 view .LVU528
	.loc 1 423 3 view .LVU529
	.loc 1 419 1 is_stmt 0 view .LVU530
	push	{r4, r5, lr}
	.cfi_def_cfa_offset 12
	.cfi_offset 4, -12
	.cfi_offset 5, -8
	.cfi_offset 14, -4
	.loc 1 423 3 view .LVU531
	ldr	r4, .L75
	ldr	r3, [r4, #20]
	.loc 1 419 1 view .LVU532
	sub	sp, sp, #12
	.cfi_def_cfa_offset 24
	.loc 1 423 3 view .LVU533
	bic	r3, r3, #4096
	str	r3, [r4, #20]
	.loc 1 423 14 is_stmt 1 view .LVU534
	.loc 1 425 3 view .LVU535
	.loc 1 419 1 is_stmt 0 view .LVU536
	mov	r5, r0
	.loc 1 425 7 view .LVU537
	movs	r3, #97
	.loc 1 426 3 view .LVU538
	add	r0, sp, #5
.LVL158:
	.loc 1 426 3 view .LVU539
	movs	r1, #1
	.loc 1 425 7 view .LVU540
	strb	r3, [sp, #5]
	.loc 1 426 3 is_stmt 1 view .LVU541
	bl	txSPI2_nRF_carrier
.LVL159:
	.loc 1 427 3 view .LVU542
	mov	r0, r5
	movs	r1, #32
	bl	rxSPI2_nRF_carrier
.LVL160:
	.loc 1 428 3 view .LVU543
	ldr	r3, [r4, #20]
.LBB225:
.LBB226:
.LBB227:
.LBB228:
	.loc 1 489 12 is_stmt 0 view .LVU544
	movs	r2, #39
	movs	r1, #64
.LBE228:
.LBE227:
.LBE226:
.LBE225:
	.loc 1 428 3 view .LVU545
	orr	r3, r3, #4096
	str	r3, [r4, #20]
	.loc 1 428 15 is_stmt 1 view .LVU546
	.loc 1 430 3 view .LVU547
.LVL161:
	.loc 1 430 3 is_stmt 0 view .LVU548
	strb	r1, [sp, #6]
.LVL162:
.LBB232:
.LBI225:
	.loc 1 150 6 is_stmt 1 view .LVU549
.LBB231:
	.loc 1 152 3 view .LVU550
.LBB230:
.LBI227:
	.loc 1 482 6 view .LVU551
.LBB229:
	.loc 1 488 3 view .LVU552
	.loc 1 489 3 view .LVU553
	.loc 1 489 12 is_stmt 0 view .LVU554
	strb	r2, [sp, #7]
.LVL163:
	.loc 1 491 3 is_stmt 1 view .LVU555
	ldr	r3, [r4, #20]
	bic	r3, r3, #4096
	str	r3, [r4, #20]
	.loc 1 491 14 view .LVU556
	.loc 1 492 3 view .LVU557
	add	r0, sp, #7
	movs	r1, #1
.LVL164:
	.loc 1 492 3 is_stmt 0 view .LVU558
	bl	txSPI2_nRF_carrier
.LVL165:
	.loc 1 493 3 is_stmt 1 view .LVU559
	movs	r1, #1
	add	r0, sp, #6
.LVL166:
	.loc 1 493 3 is_stmt 0 view .LVU560
	bl	txSPI2_nRF_carrier
.LVL167:
	.loc 1 494 3 is_stmt 1 view .LVU561
	ldr	r3, [r4, #20]
	orr	r3, r3, #4096
	str	r3, [r4, #20]
	.loc 1 494 15 view .LVU562
.LVL168:
	.loc 1 494 15 is_stmt 0 view .LVU563
.LBE229:
.LBE230:
.LBE231:
.LBE232:
	.loc 1 433 1 view .LVU564
	add	sp, sp, #12
	.cfi_def_cfa_offset 12
	@ sp needed
	pop	{r4, r5, pc}
.LVL169:
.L76:
	.loc 1 433 1 view .LVU565
	.align	2
.L75:
	.word	1073873920
	.cfi_endproc
.LFE121:
	.size	rxDataNRF24L01, .-rxDataNRF24L01
	.align	1
	.p2align 2,,3
	.global	txContCarrierNRF24L01
	.syntax unified
	.thumb
	.thumb_func
	.type	txContCarrierNRF24L01, %function
txContCarrierNRF24L01:
.LVL170:
.LFB122:
	.loc 1 441 1 is_stmt 1 view -0
	.cfi_startproc
	@ args = 0, pretend = 0, frame = 8
	@ frame_needed = 0, uses_anonymous_args = 0
	.loc 1 442 3 view .LVU567
	.loc 1 444 3 view .LVU568
	.loc 1 441 1 is_stmt 0 view .LVU569
	push	{r4, r5, r6, r7, r8, lr}
	.cfi_def_cfa_offset 24
	.cfi_offset 4, -24
	.cfi_offset 5, -20
	.cfi_offset 6, -16
	.cfi_offset 7, -12
	.cfi_offset 8, -8
	.cfi_offset 14, -4
	.loc 1 447 10 view .LVU570
	ldr	r4, .L79
	.loc 1 441 1 view .LVU571
	sub	sp, sp, #8
	.cfi_def_cfa_offset 32
	.loc 1 441 1 view .LVU572
	mov	r6, r0
	.loc 1 444 3 view .LVU573
	movs	r0, #32
.LVL171:
	.loc 1 441 1 view .LVU574
	mov	r5, r1
	.loc 1 444 3 view .LVU575
	bl	initSPI2_nRF24lO1_carrier
.LVL172:
	.loc 1 447 5 is_stmt 1 view .LVU576
	.loc 1 447 10 is_stmt 0 view .LVU577
	ldr	r3, [r4]
	.loc 1 447 18 view .LVU578
	bic	r3, r3, #12582912
	str	r3, [r4]
	.loc 1 448 5 is_stmt 1 view .LVU579
	.loc 1 448 10 is_stmt 0 view .LVU580
	ldr	r3, [r4]
	.loc 1 448 18 view .LVU581
	orr	r3, r3, #4194304
	str	r3, [r4]
	.loc 1 449 5 is_stmt 1 view .LVU582
	.loc 1 449 10 is_stmt 0 view .LVU583
	ldr	r3, [r4, #4]
	.loc 1 449 19 view .LVU584
	bic	r3, r3, #2048
	str	r3, [r4, #4]
	.loc 1 450 5 is_stmt 1 view .LVU585
	.loc 1 450 10 is_stmt 0 view .LVU586
	ldr	r3, [r4, #8]
	.loc 1 450 20 view .LVU587
	orr	r3, r3, #8388608
	str	r3, [r4, #8]
	.loc 1 451 5 is_stmt 1 view .LVU588
	.loc 1 451 10 is_stmt 0 view .LVU589
	ldr	r3, [r4, #12]
	.loc 1 451 18 view .LVU590
	bic	r3, r3, #12582912
	str	r3, [r4, #12]
	.loc 1 453 3 is_stmt 1 view .LVU591
	ldr	r3, [r4, #20]
	bic	r3, r3, #2048
	str	r3, [r4, #20]
	.loc 1 453 13 view .LVU592
	.loc 1 454 3 view .LVU593
	ldr	r3, [r4, #20]
	orr	r3, r3, #4096
	str	r3, [r4, #20]
	.loc 1 454 15 view .LVU594
	.loc 1 456 3 view .LVU595
	.loc 1 456 11 is_stmt 0 view .LVU596
	movs	r7, #10
.LBB239:
.LBB240:
	.loc 1 489 12 view .LVU597
	movs	r3, #32
.LBE240:
.LBE239:
	.loc 1 456 11 view .LVU598
	strb	r7, [sp, #4]
	.loc 1 457 3 is_stmt 1 view .LVU599
.LVL173:
.LBB242:
.LBI239:
	.loc 1 482 6 view .LVU600
.LBB241:
	.loc 1 488 3 view .LVU601
	.loc 1 489 3 view .LVU602
	.loc 1 489 12 is_stmt 0 view .LVU603
	strb	r3, [sp, #3]
.LVL174:
	.loc 1 491 3 is_stmt 1 view .LVU604
	ldr	r3, [r4, #20]
	bic	r3, r3, #4096
	str	r3, [r4, #20]
	.loc 1 491 14 view .LVU605
	.loc 1 492 3 view .LVU606
	add	r0, sp, #3
	movs	r1, #1
	bl	txSPI2_nRF_carrier
.LVL175:
	.loc 1 493 3 view .LVU607
	movs	r1, #1
	add	r0, sp, #4
.LVL176:
	.loc 1 493 3 is_stmt 0 view .LVU608
	bl	txSPI2_nRF_carrier
.LVL177:
	.loc 1 494 3 is_stmt 1 view .LVU609
	ldr	r3, [r4, #20]
	orr	r3, r3, #4096
	str	r3, [r4, #20]
	.loc 1 494 15 view .LVU610
.LVL178:
	.loc 1 494 15 is_stmt 0 view .LVU611
.LBE241:
.LBE242:
	.loc 1 458 3 is_stmt 1 view .LVU612
	movw	r0, #1500
	bl	delay_us
.LVL179:
	.loc 1 460 3 view .LVU613
	ldr	r3, [r4, #20]
	bic	r3, r3, #2048
	str	r3, [r4, #20]
	.loc 1 460 13 view .LVU614
	.loc 1 462 3 view .LVU615
.LBB243:
.LBB244:
	.loc 1 489 12 is_stmt 0 view .LVU616
	mov	r8, #38
.LBE244:
.LBE243:
	.loc 1 462 11 view .LVU617
	movs	r3, #151
.LBB247:
.LBB245:
	.loc 1 489 12 view .LVU618
	strb	r8, [sp, #3]
.LBE245:
.LBE247:
	.loc 1 462 11 view .LVU619
	strb	r3, [sp, #4]
	.loc 1 463 3 is_stmt 1 view .LVU620
.LVL180:
.LBB248:
.LBI243:
	.loc 1 482 6 view .LVU621
.LBB246:
	.loc 1 488 3 view .LVU622
	.loc 1 489 3 view .LVU623
	.loc 1 491 3 view .LVU624
	ldr	r3, [r4, #20]
	bic	r3, r3, #4096
	str	r3, [r4, #20]
	.loc 1 491 14 view .LVU625
	.loc 1 492 3 view .LVU626
	add	r0, sp, #3
	movs	r1, #1
	bl	txSPI2_nRF_carrier
.LVL181:
	.loc 1 493 3 view .LVU627
	movs	r1, #1
	add	r0, sp, #4
.LVL182:
	.loc 1 493 3 is_stmt 0 view .LVU628
	bl	txSPI2_nRF_carrier
.LVL183:
	.loc 1 494 3 is_stmt 1 view .LVU629
	ldr	r3, [r4, #20]
	orr	r3, r3, #4096
	str	r3, [r4, #20]
	.loc 1 494 15 view .LVU630
.LVL184:
	.loc 1 494 15 is_stmt 0 view .LVU631
.LBE246:
.LBE248:
	.loc 1 464 3 is_stmt 1 view .LVU632
	mov	r0, r7
	bl	delay_us
.LVL185:
	.loc 1 471 3 view .LVU633
	ldr	r3, [r4, #20]
	bic	r3, r3, #2048
	str	r3, [r4, #20]
	.loc 1 471 13 view .LVU634
	.loc 1 472 3 view .LVU635
.LBB249:
.LBB250:
	.loc 1 489 12 is_stmt 0 view .LVU636
	strb	r8, [sp, #3]
.LBE250:
.LBE249:
	.loc 1 472 11 view .LVU637
	strb	r5, [sp, #4]
	.loc 1 473 3 is_stmt 1 view .LVU638
.LVL186:
.LBB253:
.LBI249:
	.loc 1 482 6 view .LVU639
.LBB251:
	.loc 1 488 3 view .LVU640
	.loc 1 489 3 view .LVU641
	.loc 1 491 3 view .LVU642
	ldr	r3, [r4, #20]
	bic	r3, r3, #4096
	str	r3, [r4, #20]
	.loc 1 491 14 view .LVU643
	.loc 1 492 3 view .LVU644
	add	r0, sp, #3
	movs	r1, #1
	bl	txSPI2_nRF_carrier
.LVL187:
	.loc 1 493 3 view .LVU645
	uxtb	r1, r5
	add	r0, sp, #4
.LVL188:
	.loc 1 493 3 is_stmt 0 view .LVU646
	bl	txSPI2_nRF_carrier
.LVL189:
	.loc 1 494 3 is_stmt 1 view .LVU647
	ldr	r3, [r4, #20]
	orr	r3, r3, #4096
.LBE251:
.LBE253:
	.loc 1 474 3 is_stmt 0 view .LVU648
	mov	r0, r7
.LBB254:
.LBB252:
	.loc 1 494 3 view .LVU649
	str	r3, [r4, #20]
	.loc 1 494 15 is_stmt 1 view .LVU650
.LVL190:
	.loc 1 494 15 is_stmt 0 view .LVU651
.LBE252:
.LBE254:
	.loc 1 474 3 is_stmt 1 view .LVU652
	bl	delay_us
.LVL191:
	.loc 1 476 3 view .LVU653
	ldr	r3, [r4, #20]
	orr	r3, r3, #2048
	str	r3, [r4, #20]
	.loc 1 476 14 view .LVU654
	.loc 1 477 3 view .LVU655
	mov	r0, r6
	bl	delay_ms
.LVL192:
	.loc 1 478 3 view .LVU656
	ldr	r3, [r4, #20]
	bic	r3, r3, #2048
	str	r3, [r4, #20]
	.loc 1 478 13 view .LVU657
	.loc 1 479 1 is_stmt 0 view .LVU658
	add	sp, sp, #8
	.cfi_def_cfa_offset 24
	@ sp needed
	pop	{r4, r5, r6, r7, r8, pc}
.LVL193:
.L80:
	.loc 1 479 1 view .LVU659
	.align	2
.L79:
	.word	1073873920
	.cfi_endproc
.LFE122:
	.size	txContCarrierNRF24L01, .-txContCarrierNRF24L01
	.align	1
	.p2align 2,,3
	.global	setRegNRF24L01
	.syntax unified
	.thumb
	.thumb_func
	.type	setRegNRF24L01, %function
setRegNRF24L01:
.LVL194:
.LFB123:
	.loc 1 483 1 is_stmt 1 view -0
	.cfi_startproc
	@ args = 0, pretend = 0, frame = 8
	@ frame_needed = 0, uses_anonymous_args = 0
	.loc 1 488 3 view .LVU661
	.loc 1 489 3 view .LVU662
	.loc 1 483 1 is_stmt 0 view .LVU663
	push	{r4, r5, r6, lr}
	.cfi_def_cfa_offset 16
	.cfi_offset 4, -16
	.cfi_offset 5, -12
	.cfi_offset 6, -8
	.cfi_offset 14, -4
	.loc 1 488 12 view .LVU664
	and	r0, r0, #31
.LVL195:
	.loc 1 483 1 view .LVU665
	sub	sp, sp, #8
	.cfi_def_cfa_offset 24
	.loc 1 491 3 view .LVU666
	ldr	r4, .L83
	.loc 1 489 12 view .LVU667
	orr	r0, r0, #32
	strb	r0, [sp, #7]
	.loc 1 491 3 is_stmt 1 view .LVU668
	ldr	r3, [r4, #20]
	bic	r3, r3, #4096
	.loc 1 483 1 is_stmt 0 view .LVU669
	mov	r6, r2
	.loc 1 491 3 view .LVU670
	str	r3, [r4, #20]
	.loc 1 491 14 is_stmt 1 view .LVU671
	.loc 1 492 3 view .LVU672
	.loc 1 483 1 is_stmt 0 view .LVU673
	mov	r5, r1
	.loc 1 492 3 view .LVU674
	add	r0, sp, #7
	movs	r1, #1
.LVL196:
	.loc 1 492 3 view .LVU675
	bl	txSPI2_nRF_carrier
.LVL197:
	.loc 1 493 3 is_stmt 1 view .LVU676
	mov	r1, r6
	mov	r0, r5
	bl	txSPI2_nRF_carrier
.LVL198:
	.loc 1 494 3 view .LVU677
	ldr	r3, [r4, #20]
	orr	r3, r3, #4096
	str	r3, [r4, #20]
	.loc 1 494 15 view .LVU678
	.loc 1 496 1 is_stmt 0 view .LVU679
	add	sp, sp, #8
	.cfi_def_cfa_offset 16
	@ sp needed
	pop	{r4, r5, r6, pc}
.LVL199:
.L84:
	.loc 1 496 1 view .LVU680
	.align	2
.L83:
	.word	1073873920
	.cfi_endproc
.LFE123:
	.size	setRegNRF24L01, .-setRegNRF24L01
	.align	1
	.p2align 2,,3
	.global	flushTxNRF24L01
	.syntax unified
	.thumb
	.thumb_func
	.type	flushTxNRF24L01, %function
flushTxNRF24L01:
.LFB124:
	.loc 1 501 1 is_stmt 1 view -0
	.cfi_startproc
	@ args = 0, pretend = 0, frame = 0
	@ frame_needed = 0, uses_anonymous_args = 0
	.loc 1 502 2 view .LVU682
	.loc 1 501 1 is_stmt 0 view .LVU683
	push	{r4, lr}
	.cfi_def_cfa_offset 8
	.cfi_offset 4, -8
	.cfi_offset 14, -4
	.loc 1 502 2 view .LVU684
	ldr	r4, .L87
	ldr	r3, [r4, #20]
	bic	r3, r3, #4096
	str	r3, [r4, #20]
	.loc 1 502 13 is_stmt 1 view .LVU685
	.loc 1 503 2 view .LVU686
	movs	r0, #225
	bl	txByteSPI2_nRF_carrier
.LVL200:
	.loc 1 504 2 view .LVU687
	ldr	r3, [r4, #20]
	orr	r3, r3, #4096
	str	r3, [r4, #20]
	.loc 1 504 14 view .LVU688
	.loc 1 505 1 is_stmt 0 view .LVU689
	pop	{r4, pc}
.L88:
	.align	2
.L87:
	.word	1073873920
	.cfi_endproc
.LFE124:
	.size	flushTxNRF24L01, .-flushTxNRF24L01
	.align	1
	.p2align 2,,3
	.global	setTxModeNRF24L01
	.syntax unified
	.thumb
	.thumb_func
	.type	setTxModeNRF24L01, %function
setTxModeNRF24L01:
.LFB125:
	.loc 1 511 1 is_stmt 1 view -0
	.cfi_startproc
	@ args = 0, pretend = 0, frame = 8
	@ frame_needed = 0, uses_anonymous_args = 0
	.loc 1 512 2 view .LVU691
	.loc 1 511 1 is_stmt 0 view .LVU692
	push	{r4, r5, lr}
	.cfi_def_cfa_offset 12
	.cfi_offset 4, -12
	.cfi_offset 5, -8
	.cfi_offset 14, -4
	.loc 1 512 11 view .LVU693
	ldr	r1, .L91
.LBB259:
.LBB260:
.LBB261:
.LBB262:
	.loc 1 491 3 view .LVU694
	ldr	r4, .L91+4
.LBE262:
.LBE261:
.LBE260:
.LBE259:
	.loc 1 511 1 view .LVU695
	sub	sp, sp, #12
	.cfi_def_cfa_offset 24
	.loc 1 512 11 view .LVU696
	movs	r5, #1
	movs	r2, #10
.LBB269:
.LBB267:
.LBB265:
.LBB263:
	.loc 1 489 12 view .LVU697
	movs	r3, #32
.LBE263:
.LBE265:
.LBE267:
.LBE269:
	.loc 1 512 11 view .LVU698
	strb	r5, [r1]
	.loc 1 513 2 is_stmt 1 view .LVU699
.LVL201:
	.loc 1 513 2 is_stmt 0 view .LVU700
	strb	r2, [sp, #6]
.LVL202:
.LBB270:
.LBI259:
	.loc 1 150 6 is_stmt 1 view .LVU701
.LBB268:
	.loc 1 152 3 view .LVU702
.LBB266:
.LBI261:
	.loc 1 482 6 view .LVU703
.LBB264:
	.loc 1 488 3 view .LVU704
	.loc 1 489 3 view .LVU705
	.loc 1 489 12 is_stmt 0 view .LVU706
	strb	r3, [sp, #7]
.LVL203:
	.loc 1 491 3 is_stmt 1 view .LVU707
	ldr	r3, [r4, #20]
	bic	r3, r3, #4096
	str	r3, [r4, #20]
	.loc 1 491 14 view .LVU708
	.loc 1 492 3 view .LVU709
	add	r0, sp, #7
	mov	r1, r5
	bl	txSPI2_nRF_carrier
.LVL204:
	.loc 1 493 3 view .LVU710
	mov	r1, r5
	add	r0, sp, #6
.LVL205:
	.loc 1 493 3 is_stmt 0 view .LVU711
	bl	txSPI2_nRF_carrier
.LVL206:
	.loc 1 494 3 is_stmt 1 view .LVU712
	ldr	r3, [r4, #20]
	orr	r3, r3, #4096
	str	r3, [r4, #20]
	.loc 1 494 15 view .LVU713
.LVL207:
	.loc 1 494 15 is_stmt 0 view .LVU714
.LBE264:
.LBE266:
.LBE268:
.LBE270:
	.loc 1 514 1 view .LVU715
	add	sp, sp, #12
	.cfi_def_cfa_offset 12
	@ sp needed
	pop	{r4, r5, pc}
.L92:
	.align	2
.L91:
	.word	.LANCHOR0
	.word	1073873920
	.cfi_endproc
.LFE125:
	.size	setTxModeNRF24L01, .-setTxModeNRF24L01
	.global	nrf_mode
	.global	g_node_address
	.global	c_nrf_slave_addr
	.global	c_nrf_master_addr
	.global	g_nrf24l01_node_type
	.section	.rodata
	.align	2
	.set	.LANCHOR1,. + 0
	.type	c_nrf_slave_addr, %object
	.size	c_nrf_slave_addr, 6
c_nrf_slave_addr:
	.ascii	"SDR00\000"
	.space	2
	.type	c_nrf_master_addr, %object
	.size	c_nrf_master_addr, 6
c_nrf_master_addr:
	.ascii	"MDR01\000"
	.bss
	.align	2
	.set	.LANCHOR0,. + 0
	.type	nrf_mode, %object
	.size	nrf_mode, 1
nrf_mode:
	.space	1
	.type	g_nrf24l01_node_type, %object
	.size	g_nrf24l01_node_type, 1
g_nrf24l01_node_type:
	.space	1
	.space	2
	.type	g_node_address, %object
	.size	g_node_address, 4
g_node_address:
	.space	4
	.text
.Letext0:
	.file 2 "/usr/lib/gcc/arm-none-eabi/12.2.1/include/stdint.h"
	.file 3 "nRF24L01/nRF24L01.h"
	.file 4 "/home/eldar/workspace/msut/STM32F407/Libraries/CMSIS/ST/STM32F4xx/Include/stm32f4xx.h"
	.file 5 "nRF24L01/../usart/usart.h"
	.file 6 "nRF24L01/../delay/delay.h"
	.file 7 "nRF24L01/../spi/spi.h"